
test_gemm.exe:     file format pei-x86-64


Disassembly of section .text:

0000000000401000 <__mingw_invalidParameterHandler>:
  401000:	c3                   	retq   
  401001:	0f 1f 44 00 00       	nopl   0x0(%rax,%rax,1)
  401006:	66 2e 0f 1f 84 00 00 	nopw   %cs:0x0(%rax,%rax,1)
  40100d:	00 00 00 

0000000000401010 <pre_c_init>:
  401010:	48 83 ec 28          	sub    $0x28,%rsp
  401014:	48 8b 05 c5 65 01 00 	mov    0x165c5(%rip),%rax        # 4175e0 <.refptr.mingw_initltsdrot_force>
  40101b:	31 d2                	xor    %edx,%edx
  40101d:	c7 00 01 00 00 00    	movl   $0x1,(%rax)
  401023:	48 8b 05 c6 65 01 00 	mov    0x165c6(%rip),%rax        # 4175f0 <.refptr.mingw_initltsdyn_force>
  40102a:	c7 00 01 00 00 00    	movl   $0x1,(%rax)
  401030:	48 8b 05 c9 65 01 00 	mov    0x165c9(%rip),%rax        # 417600 <.refptr.mingw_initltssuo_force>
  401037:	c7 00 01 00 00 00    	movl   $0x1,(%rax)
  40103d:	48 8b 05 8c 65 01 00 	mov    0x1658c(%rip),%rax        # 4175d0 <.refptr.mingw_initcharmax>
  401044:	c7 00 01 00 00 00    	movl   $0x1,(%rax)
  40104a:	48 8b 05 6f 64 01 00 	mov    0x1646f(%rip),%rax        # 4174c0 <.refptr.__image_base__>
  401051:	66 81 38 4d 5a       	cmpw   $0x5a4d,(%rax)
  401056:	74 58                	je     4010b0 <pre_c_init+0xa0>
  401058:	48 8b 05 61 65 01 00 	mov    0x16561(%rip),%rax        # 4175c0 <.refptr.mingw_app_type>
  40105f:	89 15 a3 bf 01 00    	mov    %edx,0x1bfa3(%rip)        # 41d008 <managedapp>
  401065:	8b 00                	mov    (%rax),%eax
  401067:	85 c0                	test   %eax,%eax
  401069:	74 35                	je     4010a0 <pre_c_init+0x90>
  40106b:	b9 02 00 00 00       	mov    $0x2,%ecx
  401070:	e8 4b 3f 01 00       	callq  414fc0 <__set_app_type>
  401075:	e8 b6 3f 01 00       	callq  415030 <__p__fmode>
  40107a:	48 8b 15 ff 64 01 00 	mov    0x164ff(%rip),%rdx        # 417580 <.refptr._fmode>
  401081:	8b 12                	mov    (%rdx),%edx
  401083:	89 10                	mov    %edx,(%rax)
  401085:	e8 86 29 01 00       	callq  413a10 <_setargv>
  40108a:	48 8b 05 df 63 01 00 	mov    0x163df(%rip),%rax        # 417470 <.refptr._MINGW_INSTALL_DEBUG_MATHERR>
  401091:	83 38 01             	cmpl   $0x1,(%rax)
  401094:	74 5a                	je     4010f0 <pre_c_init+0xe0>
  401096:	31 c0                	xor    %eax,%eax
  401098:	48 83 c4 28          	add    $0x28,%rsp
  40109c:	c3                   	retq   
  40109d:	0f 1f 00             	nopl   (%rax)
  4010a0:	b9 01 00 00 00       	mov    $0x1,%ecx
  4010a5:	e8 16 3f 01 00       	callq  414fc0 <__set_app_type>
  4010aa:	eb c9                	jmp    401075 <pre_c_init+0x65>
  4010ac:	0f 1f 40 00          	nopl   0x0(%rax)
  4010b0:	48 63 48 3c          	movslq 0x3c(%rax),%rcx
  4010b4:	48 01 c8             	add    %rcx,%rax
  4010b7:	81 38 50 45 00 00    	cmpl   $0x4550,(%rax)
  4010bd:	75 99                	jne    401058 <pre_c_init+0x48>
  4010bf:	0f b7 48 18          	movzwl 0x18(%rax),%ecx
  4010c3:	66 81 f9 0b 01       	cmp    $0x10b,%cx
  4010c8:	74 39                	je     401103 <pre_c_init+0xf3>
  4010ca:	66 81 f9 0b 02       	cmp    $0x20b,%cx
  4010cf:	75 87                	jne    401058 <pre_c_init+0x48>
  4010d1:	83 b8 84 00 00 00 0e 	cmpl   $0xe,0x84(%rax)
  4010d8:	0f 86 7a ff ff ff    	jbe    401058 <pre_c_init+0x48>
  4010de:	8b 88 f8 00 00 00    	mov    0xf8(%rax),%ecx
  4010e4:	31 d2                	xor    %edx,%edx
  4010e6:	85 c9                	test   %ecx,%ecx
  4010e8:	0f 95 c2             	setne  %dl
  4010eb:	e9 68 ff ff ff       	jmpq   401058 <pre_c_init+0x48>
  4010f0:	48 8d 0d 29 2c 01 00 	lea    0x12c29(%rip),%rcx        # 413d20 <_matherr>
  4010f7:	e8 14 2c 01 00       	callq  413d10 <__mingw_setusermatherr>
  4010fc:	31 c0                	xor    %eax,%eax
  4010fe:	48 83 c4 28          	add    $0x28,%rsp
  401102:	c3                   	retq   
  401103:	83 78 74 0e          	cmpl   $0xe,0x74(%rax)
  401107:	0f 86 4b ff ff ff    	jbe    401058 <pre_c_init+0x48>
  40110d:	44 8b 80 e8 00 00 00 	mov    0xe8(%rax),%r8d
  401114:	31 d2                	xor    %edx,%edx
  401116:	45 85 c0             	test   %r8d,%r8d
  401119:	0f 95 c2             	setne  %dl
  40111c:	e9 37 ff ff ff       	jmpq   401058 <pre_c_init+0x48>
  401121:	0f 1f 44 00 00       	nopl   0x0(%rax,%rax,1)
  401126:	66 2e 0f 1f 84 00 00 	nopw   %cs:0x0(%rax,%rax,1)
  40112d:	00 00 00 

0000000000401130 <pre_cpp_init>:
  401130:	48 83 ec 38          	sub    $0x38,%rsp
  401134:	48 8b 05 75 64 01 00 	mov    0x16475(%rip),%rax        # 4175b0 <.refptr._newmode>
  40113b:	4c 8d 05 ce be 01 00 	lea    0x1bece(%rip),%r8        # 41d010 <envp>
  401142:	48 8d 15 cf be 01 00 	lea    0x1becf(%rip),%rdx        # 41d018 <argv>
  401149:	48 8d 0d d0 be 01 00 	lea    0x1bed0(%rip),%rcx        # 41d020 <argc>
  401150:	8b 00                	mov    (%rax),%eax
  401152:	89 05 a8 be 01 00    	mov    %eax,0x1bea8(%rip)        # 41d000 <__bss_start__>
  401158:	48 8d 05 a1 be 01 00 	lea    0x1bea1(%rip),%rax        # 41d000 <__bss_start__>
  40115f:	48 89 44 24 20       	mov    %rax,0x20(%rsp)
  401164:	48 8b 05 05 64 01 00 	mov    0x16405(%rip),%rax        # 417570 <.refptr._dowildcard>
  40116b:	44 8b 08             	mov    (%rax),%r9d
  40116e:	e8 5d 3e 01 00       	callq  414fd0 <__getmainargs>
  401173:	90                   	nop
  401174:	48 83 c4 38          	add    $0x38,%rsp
  401178:	c3                   	retq   
  401179:	0f 1f 80 00 00 00 00 	nopl   0x0(%rax)

0000000000401180 <__tmainCRTStartup>:
  401180:	41 55                	push   %r13
  401182:	41 54                	push   %r12
  401184:	55                   	push   %rbp
  401185:	57                   	push   %rdi
  401186:	56                   	push   %rsi
  401187:	53                   	push   %rbx
  401188:	48 81 ec 98 00 00 00 	sub    $0x98,%rsp
  40118f:	31 c0                	xor    %eax,%eax
  401191:	b9 0d 00 00 00       	mov    $0xd,%ecx
  401196:	48 8d 54 24 20       	lea    0x20(%rsp),%rdx
  40119b:	48 89 d7             	mov    %rdx,%rdi
  40119e:	f3 48 ab             	rep stos %rax,%es:(%rdi)
  4011a1:	48 8b 3d 18 64 01 00 	mov    0x16418(%rip),%rdi        # 4175c0 <.refptr.mingw_app_type>
  4011a8:	44 8b 0f             	mov    (%rdi),%r9d
  4011ab:	45 85 c9             	test   %r9d,%r9d
  4011ae:	0f 85 bc 02 00 00    	jne    401470 <__tmainCRTStartup+0x2f0>
  4011b4:	65 48 8b 04 25 30 00 	mov    %gs:0x30,%rax
  4011bb:	00 00 
  4011bd:	48 8b 1d 4c 63 01 00 	mov    0x1634c(%rip),%rbx        # 417510 <.refptr.__native_startup_lock>
  4011c4:	31 ed                	xor    %ebp,%ebp
  4011c6:	48 8b 70 08          	mov    0x8(%rax),%rsi
  4011ca:	4c 8b 25 1f d2 01 00 	mov    0x1d21f(%rip),%r12        # 41e3f0 <__imp_Sleep>
  4011d1:	eb 11                	jmp    4011e4 <__tmainCRTStartup+0x64>
  4011d3:	48 39 c6             	cmp    %rax,%rsi
  4011d6:	0f 84 34 02 00 00    	je     401410 <__tmainCRTStartup+0x290>
  4011dc:	b9 e8 03 00 00       	mov    $0x3e8,%ecx
  4011e1:	41 ff d4             	callq  *%r12
  4011e4:	48 89 e8             	mov    %rbp,%rax
  4011e7:	f0 48 0f b1 33       	lock cmpxchg %rsi,(%rbx)
  4011ec:	48 85 c0             	test   %rax,%rax
  4011ef:	75 e2                	jne    4011d3 <__tmainCRTStartup+0x53>
  4011f1:	48 8b 35 28 63 01 00 	mov    0x16328(%rip),%rsi        # 417520 <.refptr.__native_startup_state>
  4011f8:	31 ed                	xor    %ebp,%ebp
  4011fa:	8b 06                	mov    (%rsi),%eax
  4011fc:	83 f8 01             	cmp    $0x1,%eax
  4011ff:	0f 84 22 02 00 00    	je     401427 <__tmainCRTStartup+0x2a7>
  401205:	8b 06                	mov    (%rsi),%eax
  401207:	85 c0                	test   %eax,%eax
  401209:	0f 84 71 02 00 00    	je     401480 <__tmainCRTStartup+0x300>
  40120f:	c7 05 eb bd 01 00 01 	movl   $0x1,0x1bdeb(%rip)        # 41d004 <has_cctor>
  401216:	00 00 00 
  401219:	8b 06                	mov    (%rsi),%eax
  40121b:	83 f8 01             	cmp    $0x1,%eax
  40121e:	0f 84 18 02 00 00    	je     40143c <__tmainCRTStartup+0x2bc>
  401224:	85 ed                	test   %ebp,%ebp
  401226:	0f 84 31 02 00 00    	je     40145d <__tmainCRTStartup+0x2dd>
  40122c:	48 8b 05 7d 62 01 00 	mov    0x1627d(%rip),%rax        # 4174b0 <.refptr.__dyn_tls_init_callback>
  401233:	48 8b 00             	mov    (%rax),%rax
  401236:	48 85 c0             	test   %rax,%rax
  401239:	74 0c                	je     401247 <__tmainCRTStartup+0xc7>
  40123b:	45 31 c0             	xor    %r8d,%r8d
  40123e:	ba 02 00 00 00       	mov    $0x2,%edx
  401243:	31 c9                	xor    %ecx,%ecx
  401245:	ff d0                	callq  *%rax
  401247:	e8 d4 2d 01 00       	callq  414020 <_pei386_runtime_relocator>
  40124c:	48 8d 0d 1d 33 01 00 	lea    0x1331d(%rip),%rcx        # 414570 <_gnu_exception_handler>
  401253:	ff 15 8f d1 01 00    	callq  *0x1d18f(%rip)        # 41e3e8 <__imp_SetUnhandledExceptionFilter>
  401259:	48 8b 15 a0 62 01 00 	mov    0x162a0(%rip),%rdx        # 417500 <.refptr.__mingw_oldexcpt_handler>
  401260:	48 89 02             	mov    %rax,(%rdx)
  401263:	e8 18 32 01 00       	callq  414480 <__mingw_init_ehandler>
  401268:	48 8d 0d 91 fd ff ff 	lea    -0x26f(%rip),%rcx        # 401000 <__mingw_invalidParameterHandler>
  40126f:	e8 9c 3d 01 00       	callq  415010 <_set_invalid_parameter_handler>
  401274:	e8 a7 2b 01 00       	callq  413e20 <_fpreset>
  401279:	48 8b 05 40 62 01 00 	mov    0x16240(%rip),%rax        # 4174c0 <.refptr.__image_base__>
  401280:	48 89 05 e1 c6 01 00 	mov    %rax,0x1c6e1(%rip)        # 41d968 <__mingw_winmain_hInstance>
  401287:	e8 94 3d 01 00       	callq  415020 <__p__acmdln>
  40128c:	31 c9                	xor    %ecx,%ecx
  40128e:	48 8b 00             	mov    (%rax),%rax
  401291:	48 85 c0             	test   %rax,%rax
  401294:	75 1c                	jne    4012b2 <__tmainCRTStartup+0x132>
  401296:	eb 5f                	jmp    4012f7 <__tmainCRTStartup+0x177>
  401298:	0f 1f 84 00 00 00 00 	nopl   0x0(%rax,%rax,1)
  40129f:	00 
  4012a0:	84 d2                	test   %dl,%dl
  4012a2:	74 2c                	je     4012d0 <__tmainCRTStartup+0x150>
  4012a4:	83 e1 01             	and    $0x1,%ecx
  4012a7:	74 27                	je     4012d0 <__tmainCRTStartup+0x150>
  4012a9:	b9 01 00 00 00       	mov    $0x1,%ecx
  4012ae:	48 83 c0 01          	add    $0x1,%rax
  4012b2:	0f b6 10             	movzbl (%rax),%edx
  4012b5:	80 fa 20             	cmp    $0x20,%dl
  4012b8:	7e e6                	jle    4012a0 <__tmainCRTStartup+0x120>
  4012ba:	41 89 c8             	mov    %ecx,%r8d
  4012bd:	41 83 f0 01          	xor    $0x1,%r8d
  4012c1:	80 fa 22             	cmp    $0x22,%dl
  4012c4:	41 0f 44 c8          	cmove  %r8d,%ecx
  4012c8:	eb e4                	jmp    4012ae <__tmainCRTStartup+0x12e>
  4012ca:	66 0f 1f 44 00 00    	nopw   0x0(%rax,%rax,1)
  4012d0:	84 d2                	test   %dl,%dl
  4012d2:	75 11                	jne    4012e5 <__tmainCRTStartup+0x165>
  4012d4:	eb 1a                	jmp    4012f0 <__tmainCRTStartup+0x170>
  4012d6:	66 2e 0f 1f 84 00 00 	nopw   %cs:0x0(%rax,%rax,1)
  4012dd:	00 00 00 
  4012e0:	80 fa 20             	cmp    $0x20,%dl
  4012e3:	7f 0b                	jg     4012f0 <__tmainCRTStartup+0x170>
  4012e5:	48 83 c0 01          	add    $0x1,%rax
  4012e9:	0f b6 10             	movzbl (%rax),%edx
  4012ec:	84 d2                	test   %dl,%dl
  4012ee:	75 f0                	jne    4012e0 <__tmainCRTStartup+0x160>
  4012f0:	48 89 05 69 c6 01 00 	mov    %rax,0x1c669(%rip)        # 41d960 <__mingw_winmain_lpCmdLine>
  4012f7:	44 8b 07             	mov    (%rdi),%r8d
  4012fa:	45 85 c0             	test   %r8d,%r8d
  4012fd:	74 16                	je     401315 <__tmainCRTStartup+0x195>
  4012ff:	f6 44 24 5c 01       	testb  $0x1,0x5c(%rsp)
  401304:	b8 0a 00 00 00       	mov    $0xa,%eax
  401309:	0f 85 f1 00 00 00    	jne    401400 <__tmainCRTStartup+0x280>
  40130f:	89 05 eb 4c 01 00    	mov    %eax,0x14ceb(%rip)        # 416000 <__data_start__>
  401315:	8b 1d 05 bd 01 00    	mov    0x1bd05(%rip),%ebx        # 41d020 <argc>
  40131b:	44 8d 63 01          	lea    0x1(%rbx),%r12d
  40131f:	4d 63 e4             	movslq %r12d,%r12
  401322:	49 c1 e4 03          	shl    $0x3,%r12
  401326:	4c 89 e1             	mov    %r12,%rcx
  401329:	e8 2a 3c 01 00       	callq  414f58 <malloc>
  40132e:	85 db                	test   %ebx,%ebx
  401330:	48 8b 3d e1 bc 01 00 	mov    0x1bce1(%rip),%rdi        # 41d018 <argv>
  401337:	48 89 c5             	mov    %rax,%rbp
  40133a:	7e 4b                	jle    401387 <__tmainCRTStartup+0x207>
  40133c:	8d 43 ff             	lea    -0x1(%rbx),%eax
  40133f:	31 db                	xor    %ebx,%ebx
  401341:	4c 8d 2c c5 08 00 00 	lea    0x8(,%rax,8),%r13
  401348:	00 
  401349:	0f 1f 80 00 00 00 00 	nopl   0x0(%rax)
  401350:	48 8b 0c 1f          	mov    (%rdi,%rbx,1),%rcx
  401354:	e8 d7 3b 01 00       	callq  414f30 <strlen>
  401359:	48 8d 70 01          	lea    0x1(%rax),%rsi
  40135d:	48 89 f1             	mov    %rsi,%rcx
  401360:	e8 f3 3b 01 00       	callq  414f58 <malloc>
  401365:	49 89 f0             	mov    %rsi,%r8
  401368:	48 89 44 1d 00       	mov    %rax,0x0(%rbp,%rbx,1)
  40136d:	48 8b 14 1f          	mov    (%rdi,%rbx,1),%rdx
  401371:	48 89 c1             	mov    %rax,%rcx
  401374:	48 83 c3 08          	add    $0x8,%rbx
  401378:	e8 d3 3b 01 00       	callq  414f50 <memcpy>
  40137d:	49 39 dd             	cmp    %rbx,%r13
  401380:	75 ce                	jne    401350 <__tmainCRTStartup+0x1d0>
  401382:	4a 8d 44 25 f8       	lea    -0x8(%rbp,%r12,1),%rax
  401387:	48 c7 00 00 00 00 00 	movq   $0x0,(%rax)
  40138e:	48 89 2d 83 bc 01 00 	mov    %rbp,0x1bc83(%rip)        # 41d018 <argv>
  401395:	e8 46 26 01 00       	callq  4139e0 <__main>
  40139a:	48 8b 05 2f 61 01 00 	mov    0x1612f(%rip),%rax        # 4174d0 <.refptr.__imp___initenv>
  4013a1:	48 8b 15 68 bc 01 00 	mov    0x1bc68(%rip),%rdx        # 41d010 <envp>
  4013a8:	8b 0d 72 bc 01 00    	mov    0x1bc72(%rip),%ecx        # 41d020 <argc>
  4013ae:	48 8b 00             	mov    (%rax),%rax
  4013b1:	48 89 10             	mov    %rdx,(%rax)
  4013b4:	4c 8b 05 55 bc 01 00 	mov    0x1bc55(%rip),%r8        # 41d010 <envp>
  4013bb:	48 8b 15 56 bc 01 00 	mov    0x1bc56(%rip),%rdx        # 41d018 <argv>
  4013c2:	e8 ef 18 01 00       	callq  412cb6 <main>
  4013c7:	8b 0d 3b bc 01 00    	mov    0x1bc3b(%rip),%ecx        # 41d008 <managedapp>
  4013cd:	89 05 39 bc 01 00    	mov    %eax,0x1bc39(%rip)        # 41d00c <mainret>
  4013d3:	85 c9                	test   %ecx,%ecx
  4013d5:	0f 84 c3 00 00 00    	je     40149e <__tmainCRTStartup+0x31e>
  4013db:	8b 15 23 bc 01 00    	mov    0x1bc23(%rip),%edx        # 41d004 <has_cctor>
  4013e1:	85 d2                	test   %edx,%edx
  4013e3:	75 0b                	jne    4013f0 <__tmainCRTStartup+0x270>
  4013e5:	e8 be 3b 01 00       	callq  414fa8 <_cexit>
  4013ea:	8b 05 1c bc 01 00    	mov    0x1bc1c(%rip),%eax        # 41d00c <mainret>
  4013f0:	48 81 c4 98 00 00 00 	add    $0x98,%rsp
  4013f7:	5b                   	pop    %rbx
  4013f8:	5e                   	pop    %rsi
  4013f9:	5f                   	pop    %rdi
  4013fa:	5d                   	pop    %rbp
  4013fb:	41 5c                	pop    %r12
  4013fd:	41 5d                	pop    %r13
  4013ff:	c3                   	retq   
  401400:	0f b7 44 24 60       	movzwl 0x60(%rsp),%eax
  401405:	e9 05 ff ff ff       	jmpq   40130f <__tmainCRTStartup+0x18f>
  40140a:	66 0f 1f 44 00 00    	nopw   0x0(%rax,%rax,1)
  401410:	48 8b 35 09 61 01 00 	mov    0x16109(%rip),%rsi        # 417520 <.refptr.__native_startup_state>
  401417:	bd 01 00 00 00       	mov    $0x1,%ebp
  40141c:	8b 06                	mov    (%rsi),%eax
  40141e:	83 f8 01             	cmp    $0x1,%eax
  401421:	0f 85 de fd ff ff    	jne    401205 <__tmainCRTStartup+0x85>
  401427:	b9 1f 00 00 00       	mov    $0x1f,%ecx
  40142c:	e8 7f 3b 01 00       	callq  414fb0 <_amsg_exit>
  401431:	8b 06                	mov    (%rsi),%eax
  401433:	83 f8 01             	cmp    $0x1,%eax
  401436:	0f 85 e8 fd ff ff    	jne    401224 <__tmainCRTStartup+0xa4>
  40143c:	48 8b 15 fd 60 01 00 	mov    0x160fd(%rip),%rdx        # 417540 <.refptr.__xc_z>
  401443:	48 8b 0d e6 60 01 00 	mov    0x160e6(%rip),%rcx        # 417530 <.refptr.__xc_a>
  40144a:	e8 51 3b 01 00       	callq  414fa0 <_initterm>
  40144f:	85 ed                	test   %ebp,%ebp
  401451:	c7 06 02 00 00 00    	movl   $0x2,(%rsi)
  401457:	0f 85 cf fd ff ff    	jne    40122c <__tmainCRTStartup+0xac>
  40145d:	31 c0                	xor    %eax,%eax
  40145f:	48 87 03             	xchg   %rax,(%rbx)
  401462:	e9 c5 fd ff ff       	jmpq   40122c <__tmainCRTStartup+0xac>
  401467:	66 0f 1f 84 00 00 00 	nopw   0x0(%rax,%rax,1)
  40146e:	00 00 
  401470:	48 89 d1             	mov    %rdx,%rcx
  401473:	ff 15 1f cf 01 00    	callq  *0x1cf1f(%rip)        # 41e398 <__imp_GetStartupInfoA>
  401479:	e9 36 fd ff ff       	jmpq   4011b4 <__tmainCRTStartup+0x34>
  40147e:	66 90                	xchg   %ax,%ax
  401480:	48 8b 15 d9 60 01 00 	mov    0x160d9(%rip),%rdx        # 417560 <.refptr.__xi_z>
  401487:	c7 06 01 00 00 00    	movl   $0x1,(%rsi)
  40148d:	48 8b 0d bc 60 01 00 	mov    0x160bc(%rip),%rcx        # 417550 <.refptr.__xi_a>
  401494:	e8 07 3b 01 00       	callq  414fa0 <_initterm>
  401499:	e9 7b fd ff ff       	jmpq   401219 <__tmainCRTStartup+0x99>
  40149e:	89 c1                	mov    %eax,%ecx
  4014a0:	e8 db 3a 01 00       	callq  414f80 <exit>
  4014a5:	90                   	nop
  4014a6:	66 2e 0f 1f 84 00 00 	nopw   %cs:0x0(%rax,%rax,1)
  4014ad:	00 00 00 

00000000004014b0 <WinMainCRTStartup>:
  4014b0:	48 83 ec 28          	sub    $0x28,%rsp

00000000004014b4 <.l_startw>:
  4014b4:	48 8b 05 05 61 01 00 	mov    0x16105(%rip),%rax        # 4175c0 <.refptr.mingw_app_type>
  4014bb:	c7 00 01 00 00 00    	movl   $0x1,(%rax)
  4014c1:	e8 5a 25 01 00       	callq  413a20 <__security_init_cookie>
  4014c6:	e8 b5 fc ff ff       	callq  401180 <__tmainCRTStartup>
  4014cb:	90                   	nop

00000000004014cc <.l_endw>:
  4014cc:	90                   	nop
  4014cd:	48 83 c4 28          	add    $0x28,%rsp
  4014d1:	c3                   	retq   
  4014d2:	0f 1f 40 00          	nopl   0x0(%rax)
  4014d6:	66 2e 0f 1f 84 00 00 	nopw   %cs:0x0(%rax,%rax,1)
  4014dd:	00 00 00 

00000000004014e0 <mainCRTStartup>:
  4014e0:	48 83 ec 28          	sub    $0x28,%rsp

00000000004014e4 <.l_start>:
  4014e4:	48 8b 05 d5 60 01 00 	mov    0x160d5(%rip),%rax        # 4175c0 <.refptr.mingw_app_type>
  4014eb:	c7 00 00 00 00 00    	movl   $0x0,(%rax)
  4014f1:	e8 2a 25 01 00       	callq  413a20 <__security_init_cookie>
  4014f6:	e8 85 fc ff ff       	callq  401180 <__tmainCRTStartup>
  4014fb:	90                   	nop

00000000004014fc <.l_end>:
  4014fc:	90                   	nop
  4014fd:	48 83 c4 28          	add    $0x28,%rsp
  401501:	c3                   	retq   
  401502:	0f 1f 40 00          	nopl   0x0(%rax)
  401506:	66 2e 0f 1f 84 00 00 	nopw   %cs:0x0(%rax,%rax,1)
  40150d:	00 00 00 

0000000000401510 <atexit>:
  401510:	48 83 ec 28          	sub    $0x28,%rsp
  401514:	e8 7f 3a 01 00       	callq  414f98 <_onexit>
  401519:	48 85 c0             	test   %rax,%rax
  40151c:	0f 94 c0             	sete   %al
  40151f:	0f b6 c0             	movzbl %al,%eax
  401522:	f7 d8                	neg    %eax
  401524:	48 83 c4 28          	add    $0x28,%rsp
  401528:	c3                   	retq   
  401529:	90                   	nop
  40152a:	90                   	nop
  40152b:	90                   	nop
  40152c:	90                   	nop
  40152d:	90                   	nop
  40152e:	90                   	nop
  40152f:	90                   	nop

0000000000401530 <__gcc_register_frame>:
  401530:	48 8d 0d 09 00 00 00 	lea    0x9(%rip),%rcx        # 401540 <__gcc_deregister_frame>
  401537:	e9 d4 ff ff ff       	jmpq   401510 <atexit>
  40153c:	0f 1f 40 00          	nopl   0x0(%rax)

0000000000401540 <__gcc_deregister_frame>:
  401540:	c3                   	retq   
  401541:	90                   	nop
  401542:	90                   	nop
  401543:	90                   	nop
  401544:	90                   	nop
  401545:	90                   	nop
  401546:	90                   	nop
  401547:	90                   	nop
  401548:	90                   	nop
  401549:	90                   	nop
  40154a:	90                   	nop
  40154b:	90                   	nop
  40154c:	90                   	nop
  40154d:	90                   	nop
  40154e:	90                   	nop
  40154f:	90                   	nop

0000000000401550 <bli_obj_init_full_shallow_copy_of>:
  401550:	55                   	push   %rbp
  401551:	48 89 e5             	mov    %rsp,%rbp
  401554:	48 89 4d 10          	mov    %rcx,0x10(%rbp)
  401558:	48 89 55 18          	mov    %rdx,0x18(%rbp)
  40155c:	48 8b 45 10          	mov    0x10(%rbp),%rax
  401560:	48 8b 10             	mov    (%rax),%rdx
  401563:	48 8b 45 18          	mov    0x18(%rbp),%rax
  401567:	48 89 10             	mov    %rdx,(%rax)
  40156a:	48 8b 45 10          	mov    0x10(%rbp),%rax
  40156e:	48 8b 50 08          	mov    0x8(%rax),%rdx
  401572:	48 8b 45 18          	mov    0x18(%rbp),%rax
  401576:	48 89 50 08          	mov    %rdx,0x8(%rax)
  40157a:	48 8b 45 10          	mov    0x10(%rbp),%rax
  40157e:	48 8b 50 10          	mov    0x10(%rax),%rdx
  401582:	48 8b 45 18          	mov    0x18(%rbp),%rax
  401586:	48 89 50 10          	mov    %rdx,0x10(%rax)
  40158a:	48 8b 45 10          	mov    0x10(%rbp),%rax
  40158e:	48 8b 50 18          	mov    0x18(%rax),%rdx
  401592:	48 8b 45 18          	mov    0x18(%rbp),%rax
  401596:	48 89 50 18          	mov    %rdx,0x18(%rax)
  40159a:	48 8b 45 10          	mov    0x10(%rbp),%rax
  40159e:	48 8b 50 20          	mov    0x20(%rax),%rdx
  4015a2:	48 8b 45 18          	mov    0x18(%rbp),%rax
  4015a6:	48 89 50 20          	mov    %rdx,0x20(%rax)
  4015aa:	48 8b 45 10          	mov    0x10(%rbp),%rax
  4015ae:	48 8b 50 28          	mov    0x28(%rax),%rdx
  4015b2:	48 8b 45 18          	mov    0x18(%rbp),%rax
  4015b6:	48 89 50 28          	mov    %rdx,0x28(%rax)
  4015ba:	48 8b 45 10          	mov    0x10(%rbp),%rax
  4015be:	8b 50 30             	mov    0x30(%rax),%edx
  4015c1:	48 8b 45 18          	mov    0x18(%rbp),%rax
  4015c5:	89 50 30             	mov    %edx,0x30(%rax)
  4015c8:	48 8b 45 10          	mov    0x10(%rbp),%rax
  4015cc:	8b 50 34             	mov    0x34(%rax),%edx
  4015cf:	48 8b 45 18          	mov    0x18(%rbp),%rax
  4015d3:	89 50 34             	mov    %edx,0x34(%rax)
  4015d6:	48 8b 45 10          	mov    0x10(%rbp),%rax
  4015da:	48 8b 50 38          	mov    0x38(%rax),%rdx
  4015de:	48 8b 45 18          	mov    0x18(%rbp),%rax
  4015e2:	48 89 50 38          	mov    %rdx,0x38(%rax)
  4015e6:	48 8b 45 10          	mov    0x10(%rbp),%rax
  4015ea:	48 8b 50 40          	mov    0x40(%rax),%rdx
  4015ee:	48 8b 45 18          	mov    0x18(%rbp),%rax
  4015f2:	48 89 50 40          	mov    %rdx,0x40(%rax)
  4015f6:	48 8b 45 10          	mov    0x10(%rbp),%rax
  4015fa:	48 8b 50 48          	mov    0x48(%rax),%rdx
  4015fe:	48 8b 45 18          	mov    0x18(%rbp),%rax
  401602:	48 89 50 48          	mov    %rdx,0x48(%rax)
  401606:	48 8b 45 10          	mov    0x10(%rbp),%rax
  40160a:	48 8b 50 50          	mov    0x50(%rax),%rdx
  40160e:	48 8b 45 18          	mov    0x18(%rbp),%rax
  401612:	48 89 50 50          	mov    %rdx,0x50(%rax)
  401616:	48 8b 45 10          	mov    0x10(%rbp),%rax
  40161a:	48 8b 50 58          	mov    0x58(%rax),%rdx
  40161e:	48 8b 45 18          	mov    0x18(%rbp),%rax
  401622:	48 89 50 58          	mov    %rdx,0x58(%rax)
  401626:	48 8b 4d 18          	mov    0x18(%rbp),%rcx
  40162a:	48 8b 45 10          	mov    0x10(%rbp),%rax
  40162e:	48 8b 50 68          	mov    0x68(%rax),%rdx
  401632:	48 8b 40 60          	mov    0x60(%rax),%rax
  401636:	48 89 41 60          	mov    %rax,0x60(%rcx)
  40163a:	48 89 51 68          	mov    %rdx,0x68(%rcx)
  40163e:	48 8b 45 10          	mov    0x10(%rbp),%rax
  401642:	48 8b 50 70          	mov    0x70(%rax),%rdx
  401646:	48 8b 45 18          	mov    0x18(%rbp),%rax
  40164a:	48 89 50 70          	mov    %rdx,0x70(%rax)
  40164e:	48 8b 45 10          	mov    0x10(%rbp),%rax
  401652:	48 8b 50 78          	mov    0x78(%rax),%rdx
  401656:	48 8b 45 18          	mov    0x18(%rbp),%rax
  40165a:	48 89 50 78          	mov    %rdx,0x78(%rax)
  40165e:	48 8b 45 10          	mov    0x10(%rbp),%rax
  401662:	48 8b 90 80 00 00 00 	mov    0x80(%rax),%rdx
  401669:	48 8b 45 18          	mov    0x18(%rbp),%rax
  40166d:	48 89 90 80 00 00 00 	mov    %rdx,0x80(%rax)
  401674:	48 8b 45 10          	mov    0x10(%rbp),%rax
  401678:	48 8b 90 88 00 00 00 	mov    0x88(%rax),%rdx
  40167f:	48 8b 45 18          	mov    0x18(%rbp),%rax
  401683:	48 89 90 88 00 00 00 	mov    %rdx,0x88(%rax)
  40168a:	48 8b 45 10          	mov    0x10(%rbp),%rax
  40168e:	48 8b 90 90 00 00 00 	mov    0x90(%rax),%rdx
  401695:	48 8b 45 18          	mov    0x18(%rbp),%rax
  401699:	48 89 90 90 00 00 00 	mov    %rdx,0x90(%rax)
  4016a0:	48 8b 45 10          	mov    0x10(%rbp),%rax
  4016a4:	48 8b 90 98 00 00 00 	mov    0x98(%rax),%rdx
  4016ab:	48 8b 45 18          	mov    0x18(%rbp),%rax
  4016af:	48 89 90 98 00 00 00 	mov    %rdx,0x98(%rax)
  4016b6:	90                   	nop
  4016b7:	5d                   	pop    %rbp
  4016b8:	c3                   	retq   

00000000004016b9 <bli_obj_init_subpart_from>:
  4016b9:	55                   	push   %rbp
  4016ba:	48 89 e5             	mov    %rsp,%rbp
  4016bd:	48 89 4d 10          	mov    %rcx,0x10(%rbp)
  4016c1:	48 89 55 18          	mov    %rdx,0x18(%rbp)
  4016c5:	48 8b 45 10          	mov    0x10(%rbp),%rax
  4016c9:	48 8b 10             	mov    (%rax),%rdx
  4016cc:	48 8b 45 18          	mov    0x18(%rbp),%rax
  4016d0:	48 89 10             	mov    %rdx,(%rax)
  4016d3:	48 8b 45 10          	mov    0x10(%rbp),%rax
  4016d7:	48 8b 50 08          	mov    0x8(%rax),%rdx
  4016db:	48 8b 45 18          	mov    0x18(%rbp),%rax
  4016df:	48 89 50 08          	mov    %rdx,0x8(%rax)
  4016e3:	48 8b 45 10          	mov    0x10(%rbp),%rax
  4016e7:	48 8b 50 10          	mov    0x10(%rax),%rdx
  4016eb:	48 8b 45 18          	mov    0x18(%rbp),%rax
  4016ef:	48 89 50 10          	mov    %rdx,0x10(%rax)
  4016f3:	48 8b 45 10          	mov    0x10(%rbp),%rax
  4016f7:	48 8b 50 28          	mov    0x28(%rax),%rdx
  4016fb:	48 8b 45 18          	mov    0x18(%rbp),%rax
  4016ff:	48 89 50 28          	mov    %rdx,0x28(%rax)
  401703:	48 8b 45 10          	mov    0x10(%rbp),%rax
  401707:	8b 50 30             	mov    0x30(%rax),%edx
  40170a:	48 8b 45 18          	mov    0x18(%rbp),%rax
  40170e:	89 50 30             	mov    %edx,0x30(%rax)
  401711:	48 8b 45 10          	mov    0x10(%rbp),%rax
  401715:	8b 50 34             	mov    0x34(%rax),%edx
  401718:	48 8b 45 18          	mov    0x18(%rbp),%rax
  40171c:	89 50 34             	mov    %edx,0x34(%rax)
  40171f:	48 8b 45 10          	mov    0x10(%rbp),%rax
  401723:	48 8b 50 38          	mov    0x38(%rax),%rdx
  401727:	48 8b 45 18          	mov    0x18(%rbp),%rax
  40172b:	48 89 50 38          	mov    %rdx,0x38(%rax)
  40172f:	48 8b 45 10          	mov    0x10(%rbp),%rax
  401733:	48 8b 50 40          	mov    0x40(%rax),%rdx
  401737:	48 8b 45 18          	mov    0x18(%rbp),%rax
  40173b:	48 89 50 40          	mov    %rdx,0x40(%rax)
  40173f:	48 8b 45 10          	mov    0x10(%rbp),%rax
  401743:	48 8b 50 48          	mov    0x48(%rax),%rdx
  401747:	48 8b 45 18          	mov    0x18(%rbp),%rax
  40174b:	48 89 50 48          	mov    %rdx,0x48(%rax)
  40174f:	48 8b 45 10          	mov    0x10(%rbp),%rax
  401753:	48 8b 50 50          	mov    0x50(%rax),%rdx
  401757:	48 8b 45 18          	mov    0x18(%rbp),%rax
  40175b:	48 89 50 50          	mov    %rdx,0x50(%rax)
  40175f:	48 8b 45 10          	mov    0x10(%rbp),%rax
  401763:	48 8b 50 58          	mov    0x58(%rax),%rdx
  401767:	48 8b 45 18          	mov    0x18(%rbp),%rax
  40176b:	48 89 50 58          	mov    %rdx,0x58(%rax)
  40176f:	48 8b 4d 18          	mov    0x18(%rbp),%rcx
  401773:	48 8b 45 10          	mov    0x10(%rbp),%rax
  401777:	48 8b 50 68          	mov    0x68(%rax),%rdx
  40177b:	48 8b 40 60          	mov    0x60(%rax),%rax
  40177f:	48 89 41 60          	mov    %rax,0x60(%rcx)
  401783:	48 89 51 68          	mov    %rdx,0x68(%rcx)
  401787:	48 8b 45 10          	mov    0x10(%rbp),%rax
  40178b:	48 8b 50 70          	mov    0x70(%rax),%rdx
  40178f:	48 8b 45 18          	mov    0x18(%rbp),%rax
  401793:	48 89 50 70          	mov    %rdx,0x70(%rax)
  401797:	48 8b 45 10          	mov    0x10(%rbp),%rax
  40179b:	48 8b 50 78          	mov    0x78(%rax),%rdx
  40179f:	48 8b 45 18          	mov    0x18(%rbp),%rax
  4017a3:	48 89 50 78          	mov    %rdx,0x78(%rax)
  4017a7:	48 8b 45 10          	mov    0x10(%rbp),%rax
  4017ab:	48 8b 90 80 00 00 00 	mov    0x80(%rax),%rdx
  4017b2:	48 8b 45 18          	mov    0x18(%rbp),%rax
  4017b6:	48 89 90 80 00 00 00 	mov    %rdx,0x80(%rax)
  4017bd:	48 8b 45 10          	mov    0x10(%rbp),%rax
  4017c1:	48 8b 90 88 00 00 00 	mov    0x88(%rax),%rdx
  4017c8:	48 8b 45 18          	mov    0x18(%rbp),%rax
  4017cc:	48 89 90 88 00 00 00 	mov    %rdx,0x88(%rax)
  4017d3:	48 8b 45 10          	mov    0x10(%rbp),%rax
  4017d7:	48 8b 90 90 00 00 00 	mov    0x90(%rax),%rdx
  4017de:	48 8b 45 18          	mov    0x18(%rbp),%rax
  4017e2:	48 89 90 90 00 00 00 	mov    %rdx,0x90(%rax)
  4017e9:	48 8b 45 10          	mov    0x10(%rbp),%rax
  4017ed:	48 8b 90 98 00 00 00 	mov    0x98(%rax),%rdx
  4017f4:	48 8b 45 18          	mov    0x18(%rbp),%rax
  4017f8:	48 89 90 98 00 00 00 	mov    %rdx,0x98(%rax)
  4017ff:	90                   	nop
  401800:	5d                   	pop    %rbp
  401801:	c3                   	retq   

0000000000401802 <bli_round>:
  401802:	55                   	push   %rbp
  401803:	48 89 e5             	mov    %rsp,%rbp
  401806:	48 83 ec 20          	sub    $0x20,%rsp
  40180a:	f2 0f 11 45 10       	movsd  %xmm0,0x10(%rbp)
  40180f:	f2 0f 10 45 10       	movsd  0x10(%rbp),%xmm0
  401814:	e8 d7 35 01 00       	callq  414df0 <round>
  401819:	66 48 0f 7e c0       	movq   %xmm0,%rax
  40181e:	66 48 0f 6e c0       	movq   %rax,%xmm0
  401823:	48 83 c4 20          	add    $0x20,%rsp
  401827:	5d                   	pop    %rbp
  401828:	c3                   	retq   

0000000000401829 <bli_round_to_mult>:
  401829:	55                   	push   %rbp
  40182a:	48 89 e5             	mov    %rsp,%rbp
  40182d:	48 89 4d 10          	mov    %rcx,0x10(%rbp)
  401831:	48 89 55 18          	mov    %rdx,0x18(%rbp)
  401835:	48 8b 45 18          	mov    0x18(%rbp),%rax
  401839:	48 d1 e8             	shr    %rax
  40183c:	48 89 c2             	mov    %rax,%rdx
  40183f:	48 8b 45 10          	mov    0x10(%rbp),%rax
  401843:	48 01 d0             	add    %rdx,%rax
  401846:	ba 00 00 00 00       	mov    $0x0,%edx
  40184b:	48 f7 75 18          	divq   0x18(%rbp)
  40184f:	48 0f af 45 18       	imul   0x18(%rbp),%rax
  401854:	5d                   	pop    %rbp
  401855:	c3                   	retq   

0000000000401856 <bli_is_odd>:
  401856:	55                   	push   %rbp
  401857:	48 89 e5             	mov    %rsp,%rbp
  40185a:	48 89 4d 10          	mov    %rcx,0x10(%rbp)
  40185e:	48 8b 55 10          	mov    0x10(%rbp),%rdx
  401862:	48 89 d0             	mov    %rdx,%rax
  401865:	48 c1 f8 3f          	sar    $0x3f,%rax
  401869:	48 c1 e8 3f          	shr    $0x3f,%rax
  40186d:	48 01 c2             	add    %rax,%rdx
  401870:	83 e2 01             	and    $0x1,%edx
  401873:	48 29 c2             	sub    %rax,%rdx
  401876:	48 89 d0             	mov    %rdx,%rax
  401879:	48 83 f8 01          	cmp    $0x1,%rax
  40187d:	0f 94 c0             	sete   %al
  401880:	5d                   	pop    %rbp
  401881:	c3                   	retq   

0000000000401882 <bli_is_even>:
  401882:	55                   	push   %rbp
  401883:	48 89 e5             	mov    %rsp,%rbp
  401886:	48 89 4d 10          	mov    %rcx,0x10(%rbp)
  40188a:	48 8b 45 10          	mov    0x10(%rbp),%rax
  40188e:	83 e0 01             	and    $0x1,%eax
  401891:	48 85 c0             	test   %rax,%rax
  401894:	0f 94 c0             	sete   %al
  401897:	5d                   	pop    %rbp
  401898:	c3                   	retq   

0000000000401899 <bli_swap_dims>:
  401899:	55                   	push   %rbp
  40189a:	48 89 e5             	mov    %rsp,%rbp
  40189d:	48 83 ec 10          	sub    $0x10,%rsp
  4018a1:	48 89 4d 10          	mov    %rcx,0x10(%rbp)
  4018a5:	48 89 55 18          	mov    %rdx,0x18(%rbp)
  4018a9:	48 8b 45 10          	mov    0x10(%rbp),%rax
  4018ad:	48 8b 00             	mov    (%rax),%rax
  4018b0:	48 89 45 f8          	mov    %rax,-0x8(%rbp)
  4018b4:	48 8b 45 18          	mov    0x18(%rbp),%rax
  4018b8:	48 8b 10             	mov    (%rax),%rdx
  4018bb:	48 8b 45 10          	mov    0x10(%rbp),%rax
  4018bf:	48 89 10             	mov    %rdx,(%rax)
  4018c2:	48 8b 45 18          	mov    0x18(%rbp),%rax
  4018c6:	48 8b 55 f8          	mov    -0x8(%rbp),%rdx
  4018ca:	48 89 10             	mov    %rdx,(%rax)
  4018cd:	90                   	nop
  4018ce:	48 83 c4 10          	add    $0x10,%rsp
  4018d2:	5d                   	pop    %rbp
  4018d3:	c3                   	retq   

00000000004018d4 <bli_swap_incs>:
  4018d4:	55                   	push   %rbp
  4018d5:	48 89 e5             	mov    %rsp,%rbp
  4018d8:	48 83 ec 10          	sub    $0x10,%rsp
  4018dc:	48 89 4d 10          	mov    %rcx,0x10(%rbp)
  4018e0:	48 89 55 18          	mov    %rdx,0x18(%rbp)
  4018e4:	48 8b 45 10          	mov    0x10(%rbp),%rax
  4018e8:	48 8b 00             	mov    (%rax),%rax
  4018eb:	48 89 45 f8          	mov    %rax,-0x8(%rbp)
  4018ef:	48 8b 45 18          	mov    0x18(%rbp),%rax
  4018f3:	48 8b 10             	mov    (%rax),%rdx
  4018f6:	48 8b 45 10          	mov    0x10(%rbp),%rax
  4018fa:	48 89 10             	mov    %rdx,(%rax)
  4018fd:	48 8b 45 18          	mov    0x18(%rbp),%rax
  401901:	48 8b 55 f8          	mov    -0x8(%rbp),%rdx
  401905:	48 89 10             	mov    %rdx,(%rax)
  401908:	90                   	nop
  401909:	48 83 c4 10          	add    $0x10,%rsp
  40190d:	5d                   	pop    %rbp
  40190e:	c3                   	retq   

000000000040190f <bli_toggle_bool>:
  40190f:	55                   	push   %rbp
  401910:	48 89 e5             	mov    %rsp,%rbp
  401913:	48 89 4d 10          	mov    %rcx,0x10(%rbp)
  401917:	48 8b 45 10          	mov    0x10(%rbp),%rax
  40191b:	0f b6 00             	movzbl (%rax),%eax
  40191e:	84 c0                	test   %al,%al
  401920:	74 09                	je     40192b <bli_toggle_bool+0x1c>
  401922:	48 8b 45 10          	mov    0x10(%rbp),%rax
  401926:	c6 00 00             	movb   $0x0,(%rax)
  401929:	eb 07                	jmp    401932 <bli_toggle_bool+0x23>
  40192b:	48 8b 45 10          	mov    0x10(%rbp),%rax
  40192f:	c6 00 01             	movb   $0x1,(%rax)
  401932:	90                   	nop
  401933:	5d                   	pop    %rbp
  401934:	c3                   	retq   

0000000000401935 <bli_is_aligned_to>:
  401935:	55                   	push   %rbp
  401936:	48 89 e5             	mov    %rsp,%rbp
  401939:	48 89 4d 10          	mov    %rcx,0x10(%rbp)
  40193d:	48 89 55 18          	mov    %rdx,0x18(%rbp)
  401941:	48 8b 45 10          	mov    0x10(%rbp),%rax
  401945:	ba 00 00 00 00       	mov    $0x0,%edx
  40194a:	48 f7 75 18          	divq   0x18(%rbp)
  40194e:	48 89 d0             	mov    %rdx,%rax
  401951:	48 85 c0             	test   %rax,%rax
  401954:	0f 94 c0             	sete   %al
  401957:	5d                   	pop    %rbp
  401958:	c3                   	retq   

0000000000401959 <bli_is_unaligned_to>:
  401959:	55                   	push   %rbp
  40195a:	48 89 e5             	mov    %rsp,%rbp
  40195d:	48 89 4d 10          	mov    %rcx,0x10(%rbp)
  401961:	48 89 55 18          	mov    %rdx,0x18(%rbp)
  401965:	48 8b 45 10          	mov    0x10(%rbp),%rax
  401969:	ba 00 00 00 00       	mov    $0x0,%edx
  40196e:	48 f7 75 18          	divq   0x18(%rbp)
  401972:	48 89 d0             	mov    %rdx,%rax
  401975:	48 85 c0             	test   %rax,%rax
  401978:	0f 95 c0             	setne  %al
  40197b:	5d                   	pop    %rbp
  40197c:	c3                   	retq   

000000000040197d <bli_offset_past_alignment>:
  40197d:	55                   	push   %rbp
  40197e:	48 89 e5             	mov    %rsp,%rbp
  401981:	48 89 4d 10          	mov    %rcx,0x10(%rbp)
  401985:	48 89 55 18          	mov    %rdx,0x18(%rbp)
  401989:	48 8b 45 10          	mov    0x10(%rbp),%rax
  40198d:	ba 00 00 00 00       	mov    $0x0,%edx
  401992:	48 f7 75 18          	divq   0x18(%rbp)
  401996:	48 89 d0             	mov    %rdx,%rax
  401999:	5d                   	pop    %rbp
  40199a:	c3                   	retq   

000000000040199b <bli_is_float>:
  40199b:	55                   	push   %rbp
  40199c:	48 89 e5             	mov    %rsp,%rbp
  40199f:	89 4d 10             	mov    %ecx,0x10(%rbp)
  4019a2:	83 7d 10 00          	cmpl   $0x0,0x10(%rbp)
  4019a6:	0f 94 c0             	sete   %al
  4019a9:	5d                   	pop    %rbp
  4019aa:	c3                   	retq   

00000000004019ab <bli_is_double>:
  4019ab:	55                   	push   %rbp
  4019ac:	48 89 e5             	mov    %rsp,%rbp
  4019af:	89 4d 10             	mov    %ecx,0x10(%rbp)
  4019b2:	83 7d 10 02          	cmpl   $0x2,0x10(%rbp)
  4019b6:	0f 94 c0             	sete   %al
  4019b9:	5d                   	pop    %rbp
  4019ba:	c3                   	retq   

00000000004019bb <bli_is_scomplex>:
  4019bb:	55                   	push   %rbp
  4019bc:	48 89 e5             	mov    %rsp,%rbp
  4019bf:	89 4d 10             	mov    %ecx,0x10(%rbp)
  4019c2:	83 7d 10 01          	cmpl   $0x1,0x10(%rbp)
  4019c6:	0f 94 c0             	sete   %al
  4019c9:	5d                   	pop    %rbp
  4019ca:	c3                   	retq   

00000000004019cb <bli_is_dcomplex>:
  4019cb:	55                   	push   %rbp
  4019cc:	48 89 e5             	mov    %rsp,%rbp
  4019cf:	89 4d 10             	mov    %ecx,0x10(%rbp)
  4019d2:	83 7d 10 03          	cmpl   $0x3,0x10(%rbp)
  4019d6:	0f 94 c0             	sete   %al
  4019d9:	5d                   	pop    %rbp
  4019da:	c3                   	retq   

00000000004019db <bli_is_constant>:
  4019db:	55                   	push   %rbp
  4019dc:	48 89 e5             	mov    %rsp,%rbp
  4019df:	89 4d 10             	mov    %ecx,0x10(%rbp)
  4019e2:	83 7d 10 05          	cmpl   $0x5,0x10(%rbp)
  4019e6:	0f 94 c0             	sete   %al
  4019e9:	5d                   	pop    %rbp
  4019ea:	c3                   	retq   

00000000004019eb <bli_is_int>:
  4019eb:	55                   	push   %rbp
  4019ec:	48 89 e5             	mov    %rsp,%rbp
  4019ef:	89 4d 10             	mov    %ecx,0x10(%rbp)
  4019f2:	83 7d 10 04          	cmpl   $0x4,0x10(%rbp)
  4019f6:	0f 94 c0             	sete   %al
  4019f9:	5d                   	pop    %rbp
  4019fa:	c3                   	retq   

00000000004019fb <bli_is_real>:
  4019fb:	55                   	push   %rbp
  4019fc:	48 89 e5             	mov    %rsp,%rbp
  4019ff:	48 83 ec 20          	sub    $0x20,%rsp
  401a03:	89 4d 10             	mov    %ecx,0x10(%rbp)
  401a06:	8b 4d 10             	mov    0x10(%rbp),%ecx
  401a09:	e8 8d ff ff ff       	callq  40199b <bli_is_float>
  401a0e:	84 c0                	test   %al,%al
  401a10:	75 0c                	jne    401a1e <bli_is_real+0x23>
  401a12:	8b 4d 10             	mov    0x10(%rbp),%ecx
  401a15:	e8 91 ff ff ff       	callq  4019ab <bli_is_double>
  401a1a:	84 c0                	test   %al,%al
  401a1c:	74 07                	je     401a25 <bli_is_real+0x2a>
  401a1e:	b8 01 00 00 00       	mov    $0x1,%eax
  401a23:	eb 05                	jmp    401a2a <bli_is_real+0x2f>
  401a25:	b8 00 00 00 00       	mov    $0x0,%eax
  401a2a:	83 e0 01             	and    $0x1,%eax
  401a2d:	48 83 c4 20          	add    $0x20,%rsp
  401a31:	5d                   	pop    %rbp
  401a32:	c3                   	retq   

0000000000401a33 <bli_is_complex>:
  401a33:	55                   	push   %rbp
  401a34:	48 89 e5             	mov    %rsp,%rbp
  401a37:	48 83 ec 20          	sub    $0x20,%rsp
  401a3b:	89 4d 10             	mov    %ecx,0x10(%rbp)
  401a3e:	8b 4d 10             	mov    0x10(%rbp),%ecx
  401a41:	e8 75 ff ff ff       	callq  4019bb <bli_is_scomplex>
  401a46:	84 c0                	test   %al,%al
  401a48:	75 0c                	jne    401a56 <bli_is_complex+0x23>
  401a4a:	8b 4d 10             	mov    0x10(%rbp),%ecx
  401a4d:	e8 79 ff ff ff       	callq  4019cb <bli_is_dcomplex>
  401a52:	84 c0                	test   %al,%al
  401a54:	74 07                	je     401a5d <bli_is_complex+0x2a>
  401a56:	b8 01 00 00 00       	mov    $0x1,%eax
  401a5b:	eb 05                	jmp    401a62 <bli_is_complex+0x2f>
  401a5d:	b8 00 00 00 00       	mov    $0x0,%eax
  401a62:	83 e0 01             	and    $0x1,%eax
  401a65:	48 83 c4 20          	add    $0x20,%rsp
  401a69:	5d                   	pop    %rbp
  401a6a:	c3                   	retq   

0000000000401a6b <bli_is_single_prec>:
  401a6b:	55                   	push   %rbp
  401a6c:	48 89 e5             	mov    %rsp,%rbp
  401a6f:	48 83 ec 20          	sub    $0x20,%rsp
  401a73:	89 4d 10             	mov    %ecx,0x10(%rbp)
  401a76:	8b 4d 10             	mov    0x10(%rbp),%ecx
  401a79:	e8 1d ff ff ff       	callq  40199b <bli_is_float>
  401a7e:	84 c0                	test   %al,%al
  401a80:	75 0c                	jne    401a8e <bli_is_single_prec+0x23>
  401a82:	8b 4d 10             	mov    0x10(%rbp),%ecx
  401a85:	e8 31 ff ff ff       	callq  4019bb <bli_is_scomplex>
  401a8a:	84 c0                	test   %al,%al
  401a8c:	74 07                	je     401a95 <bli_is_single_prec+0x2a>
  401a8e:	b8 01 00 00 00       	mov    $0x1,%eax
  401a93:	eb 05                	jmp    401a9a <bli_is_single_prec+0x2f>
  401a95:	b8 00 00 00 00       	mov    $0x0,%eax
  401a9a:	83 e0 01             	and    $0x1,%eax
  401a9d:	48 83 c4 20          	add    $0x20,%rsp
  401aa1:	5d                   	pop    %rbp
  401aa2:	c3                   	retq   

0000000000401aa3 <bli_is_double_prec>:
  401aa3:	55                   	push   %rbp
  401aa4:	48 89 e5             	mov    %rsp,%rbp
  401aa7:	48 83 ec 20          	sub    $0x20,%rsp
  401aab:	89 4d 10             	mov    %ecx,0x10(%rbp)
  401aae:	8b 4d 10             	mov    0x10(%rbp),%ecx
  401ab1:	e8 f5 fe ff ff       	callq  4019ab <bli_is_double>
  401ab6:	84 c0                	test   %al,%al
  401ab8:	75 0c                	jne    401ac6 <bli_is_double_prec+0x23>
  401aba:	8b 4d 10             	mov    0x10(%rbp),%ecx
  401abd:	e8 09 ff ff ff       	callq  4019cb <bli_is_dcomplex>
  401ac2:	84 c0                	test   %al,%al
  401ac4:	74 07                	je     401acd <bli_is_double_prec+0x2a>
  401ac6:	b8 01 00 00 00       	mov    $0x1,%eax
  401acb:	eb 05                	jmp    401ad2 <bli_is_double_prec+0x2f>
  401acd:	b8 00 00 00 00       	mov    $0x0,%eax
  401ad2:	83 e0 01             	and    $0x1,%eax
  401ad5:	48 83 c4 20          	add    $0x20,%rsp
  401ad9:	5d                   	pop    %rbp
  401ada:	c3                   	retq   

0000000000401adb <bli_dt_domain>:
  401adb:	55                   	push   %rbp
  401adc:	48 89 e5             	mov    %rsp,%rbp
  401adf:	89 4d 10             	mov    %ecx,0x10(%rbp)
  401ae2:	8b 45 10             	mov    0x10(%rbp),%eax
  401ae5:	83 e0 01             	and    $0x1,%eax
  401ae8:	5d                   	pop    %rbp
  401ae9:	c3                   	retq   

0000000000401aea <bli_dt_dom_is_real>:
  401aea:	55                   	push   %rbp
  401aeb:	48 89 e5             	mov    %rsp,%rbp
  401aee:	89 4d 10             	mov    %ecx,0x10(%rbp)
  401af1:	8b 45 10             	mov    0x10(%rbp),%eax
  401af4:	83 e0 01             	and    $0x1,%eax
  401af7:	85 c0                	test   %eax,%eax
  401af9:	0f 94 c0             	sete   %al
  401afc:	5d                   	pop    %rbp
  401afd:	c3                   	retq   

0000000000401afe <bli_dt_dom_is_complex>:
  401afe:	55                   	push   %rbp
  401aff:	48 89 e5             	mov    %rsp,%rbp
  401b02:	89 4d 10             	mov    %ecx,0x10(%rbp)
  401b05:	8b 45 10             	mov    0x10(%rbp),%eax
  401b08:	83 e0 01             	and    $0x1,%eax
  401b0b:	85 c0                	test   %eax,%eax
  401b0d:	0f 95 c0             	setne  %al
  401b10:	5d                   	pop    %rbp
  401b11:	c3                   	retq   

0000000000401b12 <bli_dt_prec>:
  401b12:	55                   	push   %rbp
  401b13:	48 89 e5             	mov    %rsp,%rbp
  401b16:	89 4d 10             	mov    %ecx,0x10(%rbp)
  401b19:	8b 45 10             	mov    0x10(%rbp),%eax
  401b1c:	83 e0 02             	and    $0x2,%eax
  401b1f:	5d                   	pop    %rbp
  401b20:	c3                   	retq   

0000000000401b21 <bli_dt_prec_is_single>:
  401b21:	55                   	push   %rbp
  401b22:	48 89 e5             	mov    %rsp,%rbp
  401b25:	89 4d 10             	mov    %ecx,0x10(%rbp)
  401b28:	8b 45 10             	mov    0x10(%rbp),%eax
  401b2b:	83 e0 02             	and    $0x2,%eax
  401b2e:	85 c0                	test   %eax,%eax
  401b30:	0f 94 c0             	sete   %al
  401b33:	5d                   	pop    %rbp
  401b34:	c3                   	retq   

0000000000401b35 <bli_dt_prec_is_double>:
  401b35:	55                   	push   %rbp
  401b36:	48 89 e5             	mov    %rsp,%rbp
  401b39:	89 4d 10             	mov    %ecx,0x10(%rbp)
  401b3c:	8b 45 10             	mov    0x10(%rbp),%eax
  401b3f:	83 e0 02             	and    $0x2,%eax
  401b42:	85 c0                	test   %eax,%eax
  401b44:	0f 95 c0             	setne  %al
  401b47:	5d                   	pop    %rbp
  401b48:	c3                   	retq   

0000000000401b49 <bli_dt_proj_to_real>:
  401b49:	55                   	push   %rbp
  401b4a:	48 89 e5             	mov    %rsp,%rbp
  401b4d:	89 4d 10             	mov    %ecx,0x10(%rbp)
  401b50:	8b 45 10             	mov    0x10(%rbp),%eax
  401b53:	83 e0 fe             	and    $0xfffffffe,%eax
  401b56:	5d                   	pop    %rbp
  401b57:	c3                   	retq   

0000000000401b58 <bli_dt_proj_to_complex>:
  401b58:	55                   	push   %rbp
  401b59:	48 89 e5             	mov    %rsp,%rbp
  401b5c:	89 4d 10             	mov    %ecx,0x10(%rbp)
  401b5f:	8b 45 10             	mov    0x10(%rbp),%eax
  401b62:	83 c8 01             	or     $0x1,%eax
  401b65:	5d                   	pop    %rbp
  401b66:	c3                   	retq   

0000000000401b67 <bli_dt_proj_to_single_prec>:
  401b67:	55                   	push   %rbp
  401b68:	48 89 e5             	mov    %rsp,%rbp
  401b6b:	89 4d 10             	mov    %ecx,0x10(%rbp)
  401b6e:	8b 45 10             	mov    0x10(%rbp),%eax
  401b71:	83 e0 fd             	and    $0xfffffffd,%eax
  401b74:	5d                   	pop    %rbp
  401b75:	c3                   	retq   

0000000000401b76 <bli_dt_proj_to_double_prec>:
  401b76:	55                   	push   %rbp
  401b77:	48 89 e5             	mov    %rsp,%rbp
  401b7a:	89 4d 10             	mov    %ecx,0x10(%rbp)
  401b7d:	8b 45 10             	mov    0x10(%rbp),%eax
  401b80:	83 c8 02             	or     $0x2,%eax
  401b83:	5d                   	pop    %rbp
  401b84:	c3                   	retq   

0000000000401b85 <bli_is_notrans>:
  401b85:	55                   	push   %rbp
  401b86:	48 89 e5             	mov    %rsp,%rbp
  401b89:	89 4d 10             	mov    %ecx,0x10(%rbp)
  401b8c:	83 7d 10 00          	cmpl   $0x0,0x10(%rbp)
  401b90:	0f 94 c0             	sete   %al
  401b93:	5d                   	pop    %rbp
  401b94:	c3                   	retq   

0000000000401b95 <bli_is_trans>:
  401b95:	55                   	push   %rbp
  401b96:	48 89 e5             	mov    %rsp,%rbp
  401b99:	89 4d 10             	mov    %ecx,0x10(%rbp)
  401b9c:	83 7d 10 08          	cmpl   $0x8,0x10(%rbp)
  401ba0:	0f 94 c0             	sete   %al
  401ba3:	5d                   	pop    %rbp
  401ba4:	c3                   	retq   

0000000000401ba5 <bli_is_conjnotrans>:
  401ba5:	55                   	push   %rbp
  401ba6:	48 89 e5             	mov    %rsp,%rbp
  401ba9:	89 4d 10             	mov    %ecx,0x10(%rbp)
  401bac:	83 7d 10 10          	cmpl   $0x10,0x10(%rbp)
  401bb0:	0f 94 c0             	sete   %al
  401bb3:	5d                   	pop    %rbp
  401bb4:	c3                   	retq   

0000000000401bb5 <bli_is_conjtrans>:
  401bb5:	55                   	push   %rbp
  401bb6:	48 89 e5             	mov    %rsp,%rbp
  401bb9:	89 4d 10             	mov    %ecx,0x10(%rbp)
  401bbc:	83 7d 10 18          	cmpl   $0x18,0x10(%rbp)
  401bc0:	0f 94 c0             	sete   %al
  401bc3:	5d                   	pop    %rbp
  401bc4:	c3                   	retq   

0000000000401bc5 <bli_does_notrans>:
  401bc5:	55                   	push   %rbp
  401bc6:	48 89 e5             	mov    %rsp,%rbp
  401bc9:	89 4d 10             	mov    %ecx,0x10(%rbp)
  401bcc:	8b 45 10             	mov    0x10(%rbp),%eax
  401bcf:	83 e0 08             	and    $0x8,%eax
  401bd2:	85 c0                	test   %eax,%eax
  401bd4:	0f 94 c0             	sete   %al
  401bd7:	5d                   	pop    %rbp
  401bd8:	c3                   	retq   

0000000000401bd9 <bli_does_trans>:
  401bd9:	55                   	push   %rbp
  401bda:	48 89 e5             	mov    %rsp,%rbp
  401bdd:	89 4d 10             	mov    %ecx,0x10(%rbp)
  401be0:	8b 45 10             	mov    0x10(%rbp),%eax
  401be3:	83 e0 08             	and    $0x8,%eax
  401be6:	85 c0                	test   %eax,%eax
  401be8:	0f 95 c0             	setne  %al
  401beb:	5d                   	pop    %rbp
  401bec:	c3                   	retq   

0000000000401bed <bli_does_noconj>:
  401bed:	55                   	push   %rbp
  401bee:	48 89 e5             	mov    %rsp,%rbp
  401bf1:	89 4d 10             	mov    %ecx,0x10(%rbp)
  401bf4:	8b 45 10             	mov    0x10(%rbp),%eax
  401bf7:	83 e0 10             	and    $0x10,%eax
  401bfa:	85 c0                	test   %eax,%eax
  401bfc:	0f 94 c0             	sete   %al
  401bff:	5d                   	pop    %rbp
  401c00:	c3                   	retq   

0000000000401c01 <bli_does_conj>:
  401c01:	55                   	push   %rbp
  401c02:	48 89 e5             	mov    %rsp,%rbp
  401c05:	89 4d 10             	mov    %ecx,0x10(%rbp)
  401c08:	8b 45 10             	mov    0x10(%rbp),%eax
  401c0b:	83 e0 10             	and    $0x10,%eax
  401c0e:	85 c0                	test   %eax,%eax
  401c10:	0f 95 c0             	setne  %al
  401c13:	5d                   	pop    %rbp
  401c14:	c3                   	retq   

0000000000401c15 <bli_extract_trans>:
  401c15:	55                   	push   %rbp
  401c16:	48 89 e5             	mov    %rsp,%rbp
  401c19:	89 4d 10             	mov    %ecx,0x10(%rbp)
  401c1c:	8b 45 10             	mov    0x10(%rbp),%eax
  401c1f:	83 e0 08             	and    $0x8,%eax
  401c22:	5d                   	pop    %rbp
  401c23:	c3                   	retq   

0000000000401c24 <bli_extract_conj>:
  401c24:	55                   	push   %rbp
  401c25:	48 89 e5             	mov    %rsp,%rbp
  401c28:	89 4d 10             	mov    %ecx,0x10(%rbp)
  401c2b:	8b 45 10             	mov    0x10(%rbp),%eax
  401c2e:	83 e0 10             	and    $0x10,%eax
  401c31:	5d                   	pop    %rbp
  401c32:	c3                   	retq   

0000000000401c33 <bli_trans_toggled>:
  401c33:	55                   	push   %rbp
  401c34:	48 89 e5             	mov    %rsp,%rbp
  401c37:	89 4d 10             	mov    %ecx,0x10(%rbp)
  401c3a:	8b 45 10             	mov    0x10(%rbp),%eax
  401c3d:	83 f0 08             	xor    $0x8,%eax
  401c40:	5d                   	pop    %rbp
  401c41:	c3                   	retq   

0000000000401c42 <bli_trans_toggled_conj>:
  401c42:	55                   	push   %rbp
  401c43:	48 89 e5             	mov    %rsp,%rbp
  401c46:	89 4d 10             	mov    %ecx,0x10(%rbp)
  401c49:	8b 45 10             	mov    0x10(%rbp),%eax
  401c4c:	83 f0 10             	xor    $0x10,%eax
  401c4f:	5d                   	pop    %rbp
  401c50:	c3                   	retq   

0000000000401c51 <bli_toggle_trans>:
  401c51:	55                   	push   %rbp
  401c52:	48 89 e5             	mov    %rsp,%rbp
  401c55:	48 83 ec 20          	sub    $0x20,%rsp
  401c59:	48 89 4d 10          	mov    %rcx,0x10(%rbp)
  401c5d:	48 8b 45 10          	mov    0x10(%rbp),%rax
  401c61:	8b 00                	mov    (%rax),%eax
  401c63:	89 c1                	mov    %eax,%ecx
  401c65:	e8 c9 ff ff ff       	callq  401c33 <bli_trans_toggled>
  401c6a:	89 c2                	mov    %eax,%edx
  401c6c:	48 8b 45 10          	mov    0x10(%rbp),%rax
  401c70:	89 10                	mov    %edx,(%rax)
  401c72:	90                   	nop
  401c73:	48 83 c4 20          	add    $0x20,%rsp
  401c77:	5d                   	pop    %rbp
  401c78:	c3                   	retq   

0000000000401c79 <bli_is_left>:
  401c79:	55                   	push   %rbp
  401c7a:	48 89 e5             	mov    %rsp,%rbp
  401c7d:	89 4d 10             	mov    %ecx,0x10(%rbp)
  401c80:	83 7d 10 00          	cmpl   $0x0,0x10(%rbp)
  401c84:	0f 94 c0             	sete   %al
  401c87:	5d                   	pop    %rbp
  401c88:	c3                   	retq   

0000000000401c89 <bli_is_right>:
  401c89:	55                   	push   %rbp
  401c8a:	48 89 e5             	mov    %rsp,%rbp
  401c8d:	89 4d 10             	mov    %ecx,0x10(%rbp)
  401c90:	83 7d 10 01          	cmpl   $0x1,0x10(%rbp)
  401c94:	0f 94 c0             	sete   %al
  401c97:	5d                   	pop    %rbp
  401c98:	c3                   	retq   

0000000000401c99 <bli_side_toggled>:
  401c99:	55                   	push   %rbp
  401c9a:	48 89 e5             	mov    %rsp,%rbp
  401c9d:	48 83 ec 20          	sub    $0x20,%rsp
  401ca1:	89 4d 10             	mov    %ecx,0x10(%rbp)
  401ca4:	8b 4d 10             	mov    0x10(%rbp),%ecx
  401ca7:	e8 cd ff ff ff       	callq  401c79 <bli_is_left>
  401cac:	0f b6 c0             	movzbl %al,%eax
  401caf:	48 83 c4 20          	add    $0x20,%rsp
  401cb3:	5d                   	pop    %rbp
  401cb4:	c3                   	retq   

0000000000401cb5 <bli_toggle_side>:
  401cb5:	55                   	push   %rbp
  401cb6:	48 89 e5             	mov    %rsp,%rbp
  401cb9:	48 83 ec 20          	sub    $0x20,%rsp
  401cbd:	48 89 4d 10          	mov    %rcx,0x10(%rbp)
  401cc1:	48 8b 45 10          	mov    0x10(%rbp),%rax
  401cc5:	8b 00                	mov    (%rax),%eax
  401cc7:	89 c1                	mov    %eax,%ecx
  401cc9:	e8 cb ff ff ff       	callq  401c99 <bli_side_toggled>
  401cce:	89 c2                	mov    %eax,%edx
  401cd0:	48 8b 45 10          	mov    0x10(%rbp),%rax
  401cd4:	89 10                	mov    %edx,(%rax)
  401cd6:	90                   	nop
  401cd7:	48 83 c4 20          	add    $0x20,%rsp
  401cdb:	5d                   	pop    %rbp
  401cdc:	c3                   	retq   

0000000000401cdd <bli_is_lower>:
  401cdd:	55                   	push   %rbp
  401cde:	48 89 e5             	mov    %rsp,%rbp
  401ce1:	89 4d 10             	mov    %ecx,0x10(%rbp)
  401ce4:	81 7d 10 c0 00 00 00 	cmpl   $0xc0,0x10(%rbp)
  401ceb:	0f 94 c0             	sete   %al
  401cee:	5d                   	pop    %rbp
  401cef:	c3                   	retq   

0000000000401cf0 <bli_is_upper>:
  401cf0:	55                   	push   %rbp
  401cf1:	48 89 e5             	mov    %rsp,%rbp
  401cf4:	89 4d 10             	mov    %ecx,0x10(%rbp)
  401cf7:	83 7d 10 60          	cmpl   $0x60,0x10(%rbp)
  401cfb:	0f 94 c0             	sete   %al
  401cfe:	5d                   	pop    %rbp
  401cff:	c3                   	retq   

0000000000401d00 <bli_is_upper_or_lower>:
  401d00:	55                   	push   %rbp
  401d01:	48 89 e5             	mov    %rsp,%rbp
  401d04:	48 83 ec 20          	sub    $0x20,%rsp
  401d08:	89 4d 10             	mov    %ecx,0x10(%rbp)
  401d0b:	8b 4d 10             	mov    0x10(%rbp),%ecx
  401d0e:	e8 dd ff ff ff       	callq  401cf0 <bli_is_upper>
  401d13:	84 c0                	test   %al,%al
  401d15:	75 0c                	jne    401d23 <bli_is_upper_or_lower+0x23>
  401d17:	8b 4d 10             	mov    0x10(%rbp),%ecx
  401d1a:	e8 be ff ff ff       	callq  401cdd <bli_is_lower>
  401d1f:	84 c0                	test   %al,%al
  401d21:	74 07                	je     401d2a <bli_is_upper_or_lower+0x2a>
  401d23:	b8 01 00 00 00       	mov    $0x1,%eax
  401d28:	eb 05                	jmp    401d2f <bli_is_upper_or_lower+0x2f>
  401d2a:	b8 00 00 00 00       	mov    $0x0,%eax
  401d2f:	83 e0 01             	and    $0x1,%eax
  401d32:	48 83 c4 20          	add    $0x20,%rsp
  401d36:	5d                   	pop    %rbp
  401d37:	c3                   	retq   

0000000000401d38 <bli_is_dense>:
  401d38:	55                   	push   %rbp
  401d39:	48 89 e5             	mov    %rsp,%rbp
  401d3c:	89 4d 10             	mov    %ecx,0x10(%rbp)
  401d3f:	81 7d 10 e0 00 00 00 	cmpl   $0xe0,0x10(%rbp)
  401d46:	0f 94 c0             	sete   %al
  401d49:	5d                   	pop    %rbp
  401d4a:	c3                   	retq   

0000000000401d4b <bli_is_zeros>:
  401d4b:	55                   	push   %rbp
  401d4c:	48 89 e5             	mov    %rsp,%rbp
  401d4f:	89 4d 10             	mov    %ecx,0x10(%rbp)
  401d52:	83 7d 10 00          	cmpl   $0x0,0x10(%rbp)
  401d56:	0f 94 c0             	sete   %al
  401d59:	5d                   	pop    %rbp
  401d5a:	c3                   	retq   

0000000000401d5b <bli_uplo_toggled>:
  401d5b:	55                   	push   %rbp
  401d5c:	48 89 e5             	mov    %rsp,%rbp
  401d5f:	48 83 ec 20          	sub    $0x20,%rsp
  401d63:	89 4d 10             	mov    %ecx,0x10(%rbp)
  401d66:	8b 4d 10             	mov    0x10(%rbp),%ecx
  401d69:	e8 92 ff ff ff       	callq  401d00 <bli_is_upper_or_lower>
  401d6e:	84 c0                	test   %al,%al
  401d70:	74 07                	je     401d79 <bli_uplo_toggled+0x1e>
  401d72:	8b 45 10             	mov    0x10(%rbp),%eax
  401d75:	34 a0                	xor    $0xa0,%al
  401d77:	eb 03                	jmp    401d7c <bli_uplo_toggled+0x21>
  401d79:	8b 45 10             	mov    0x10(%rbp),%eax
  401d7c:	48 83 c4 20          	add    $0x20,%rsp
  401d80:	5d                   	pop    %rbp
  401d81:	c3                   	retq   

0000000000401d82 <bli_toggle_uplo>:
  401d82:	55                   	push   %rbp
  401d83:	48 89 e5             	mov    %rsp,%rbp
  401d86:	48 83 ec 20          	sub    $0x20,%rsp
  401d8a:	48 89 4d 10          	mov    %rcx,0x10(%rbp)
  401d8e:	48 8b 45 10          	mov    0x10(%rbp),%rax
  401d92:	8b 00                	mov    (%rax),%eax
  401d94:	89 c1                	mov    %eax,%ecx
  401d96:	e8 c0 ff ff ff       	callq  401d5b <bli_uplo_toggled>
  401d9b:	89 c2                	mov    %eax,%edx
  401d9d:	48 8b 45 10          	mov    0x10(%rbp),%rax
  401da1:	89 10                	mov    %edx,(%rax)
  401da3:	90                   	nop
  401da4:	48 83 c4 20          	add    $0x20,%rsp
  401da8:	5d                   	pop    %rbp
  401da9:	c3                   	retq   

0000000000401daa <bli_is_general>:
  401daa:	55                   	push   %rbp
  401dab:	48 89 e5             	mov    %rsp,%rbp
  401dae:	89 4d 10             	mov    %ecx,0x10(%rbp)
  401db1:	83 7d 10 00          	cmpl   $0x0,0x10(%rbp)
  401db5:	0f 94 c0             	sete   %al
  401db8:	5d                   	pop    %rbp
  401db9:	c3                   	retq   

0000000000401dba <bli_is_hermitian>:
  401dba:	55                   	push   %rbp
  401dbb:	48 89 e5             	mov    %rsp,%rbp
  401dbe:	89 4d 10             	mov    %ecx,0x10(%rbp)
  401dc1:	81 7d 10 00 00 00 08 	cmpl   $0x8000000,0x10(%rbp)
  401dc8:	0f 94 c0             	sete   %al
  401dcb:	5d                   	pop    %rbp
  401dcc:	c3                   	retq   

0000000000401dcd <bli_is_symmetric>:
  401dcd:	55                   	push   %rbp
  401dce:	48 89 e5             	mov    %rsp,%rbp
  401dd1:	89 4d 10             	mov    %ecx,0x10(%rbp)
  401dd4:	81 7d 10 00 00 00 10 	cmpl   $0x10000000,0x10(%rbp)
  401ddb:	0f 94 c0             	sete   %al
  401dde:	5d                   	pop    %rbp
  401ddf:	c3                   	retq   

0000000000401de0 <bli_is_triangular>:
  401de0:	55                   	push   %rbp
  401de1:	48 89 e5             	mov    %rsp,%rbp
  401de4:	89 4d 10             	mov    %ecx,0x10(%rbp)
  401de7:	81 7d 10 00 00 00 18 	cmpl   $0x18000000,0x10(%rbp)
  401dee:	0f 94 c0             	sete   %al
  401df1:	5d                   	pop    %rbp
  401df2:	c3                   	retq   

0000000000401df3 <bli_is_herm_or_symm>:
  401df3:	55                   	push   %rbp
  401df4:	48 89 e5             	mov    %rsp,%rbp
  401df7:	48 83 ec 20          	sub    $0x20,%rsp
  401dfb:	89 4d 10             	mov    %ecx,0x10(%rbp)
  401dfe:	8b 4d 10             	mov    0x10(%rbp),%ecx
  401e01:	e8 b4 ff ff ff       	callq  401dba <bli_is_hermitian>
  401e06:	84 c0                	test   %al,%al
  401e08:	75 0c                	jne    401e16 <bli_is_herm_or_symm+0x23>
  401e0a:	8b 4d 10             	mov    0x10(%rbp),%ecx
  401e0d:	e8 bb ff ff ff       	callq  401dcd <bli_is_symmetric>
  401e12:	84 c0                	test   %al,%al
  401e14:	74 07                	je     401e1d <bli_is_herm_or_symm+0x2a>
  401e16:	b8 01 00 00 00       	mov    $0x1,%eax
  401e1b:	eb 05                	jmp    401e22 <bli_is_herm_or_symm+0x2f>
  401e1d:	b8 00 00 00 00       	mov    $0x0,%eax
  401e22:	83 e0 01             	and    $0x1,%eax
  401e25:	48 83 c4 20          	add    $0x20,%rsp
  401e29:	5d                   	pop    %rbp
  401e2a:	c3                   	retq   

0000000000401e2b <bli_is_noconj>:
  401e2b:	55                   	push   %rbp
  401e2c:	48 89 e5             	mov    %rsp,%rbp
  401e2f:	89 4d 10             	mov    %ecx,0x10(%rbp)
  401e32:	83 7d 10 00          	cmpl   $0x0,0x10(%rbp)
  401e36:	0f 94 c0             	sete   %al
  401e39:	5d                   	pop    %rbp
  401e3a:	c3                   	retq   

0000000000401e3b <bli_is_conj>:
  401e3b:	55                   	push   %rbp
  401e3c:	48 89 e5             	mov    %rsp,%rbp
  401e3f:	89 4d 10             	mov    %ecx,0x10(%rbp)
  401e42:	83 7d 10 10          	cmpl   $0x10,0x10(%rbp)
  401e46:	0f 94 c0             	sete   %al
  401e49:	5d                   	pop    %rbp
  401e4a:	c3                   	retq   

0000000000401e4b <bli_conj_toggled>:
  401e4b:	55                   	push   %rbp
  401e4c:	48 89 e5             	mov    %rsp,%rbp
  401e4f:	89 4d 10             	mov    %ecx,0x10(%rbp)
  401e52:	8b 45 10             	mov    0x10(%rbp),%eax
  401e55:	83 f0 10             	xor    $0x10,%eax
  401e58:	5d                   	pop    %rbp
  401e59:	c3                   	retq   

0000000000401e5a <bli_apply_conj>:
  401e5a:	55                   	push   %rbp
  401e5b:	48 89 e5             	mov    %rsp,%rbp
  401e5e:	89 4d 10             	mov    %ecx,0x10(%rbp)
  401e61:	89 55 18             	mov    %edx,0x18(%rbp)
  401e64:	8b 45 18             	mov    0x18(%rbp),%eax
  401e67:	33 45 10             	xor    0x10(%rbp),%eax
  401e6a:	5d                   	pop    %rbp
  401e6b:	c3                   	retq   

0000000000401e6c <bli_toggle_conj>:
  401e6c:	55                   	push   %rbp
  401e6d:	48 89 e5             	mov    %rsp,%rbp
  401e70:	48 83 ec 20          	sub    $0x20,%rsp
  401e74:	48 89 4d 10          	mov    %rcx,0x10(%rbp)
  401e78:	48 8b 45 10          	mov    0x10(%rbp),%rax
  401e7c:	8b 00                	mov    (%rax),%eax
  401e7e:	89 c1                	mov    %eax,%ecx
  401e80:	e8 c6 ff ff ff       	callq  401e4b <bli_conj_toggled>
  401e85:	89 c2                	mov    %eax,%edx
  401e87:	48 8b 45 10          	mov    0x10(%rbp),%rax
  401e8b:	89 10                	mov    %edx,(%rax)
  401e8d:	90                   	nop
  401e8e:	48 83 c4 20          	add    $0x20,%rsp
  401e92:	5d                   	pop    %rbp
  401e93:	c3                   	retq   

0000000000401e94 <bli_is_nonunit_diag>:
  401e94:	55                   	push   %rbp
  401e95:	48 89 e5             	mov    %rsp,%rbp
  401e98:	89 4d 10             	mov    %ecx,0x10(%rbp)
  401e9b:	83 7d 10 00          	cmpl   $0x0,0x10(%rbp)
  401e9f:	0f 94 c0             	sete   %al
  401ea2:	5d                   	pop    %rbp
  401ea3:	c3                   	retq   

0000000000401ea4 <bli_is_unit_diag>:
  401ea4:	55                   	push   %rbp
  401ea5:	48 89 e5             	mov    %rsp,%rbp
  401ea8:	89 4d 10             	mov    %ecx,0x10(%rbp)
  401eab:	81 7d 10 00 01 00 00 	cmpl   $0x100,0x10(%rbp)
  401eb2:	0f 94 c0             	sete   %al
  401eb5:	5d                   	pop    %rbp
  401eb6:	c3                   	retq   

0000000000401eb7 <bli_zero_dim1>:
  401eb7:	55                   	push   %rbp
  401eb8:	48 89 e5             	mov    %rsp,%rbp
  401ebb:	48 89 4d 10          	mov    %rcx,0x10(%rbp)
  401ebf:	48 83 7d 10 00       	cmpq   $0x0,0x10(%rbp)
  401ec4:	0f 94 c0             	sete   %al
  401ec7:	5d                   	pop    %rbp
  401ec8:	c3                   	retq   

0000000000401ec9 <bli_zero_dim2>:
  401ec9:	55                   	push   %rbp
  401eca:	48 89 e5             	mov    %rsp,%rbp
  401ecd:	48 89 4d 10          	mov    %rcx,0x10(%rbp)
  401ed1:	48 89 55 18          	mov    %rdx,0x18(%rbp)
  401ed5:	48 83 7d 10 00       	cmpq   $0x0,0x10(%rbp)
  401eda:	74 07                	je     401ee3 <bli_zero_dim2+0x1a>
  401edc:	48 83 7d 18 00       	cmpq   $0x0,0x18(%rbp)
  401ee1:	75 07                	jne    401eea <bli_zero_dim2+0x21>
  401ee3:	b8 01 00 00 00       	mov    $0x1,%eax
  401ee8:	eb 05                	jmp    401eef <bli_zero_dim2+0x26>
  401eea:	b8 00 00 00 00       	mov    $0x0,%eax
  401eef:	83 e0 01             	and    $0x1,%eax
  401ef2:	5d                   	pop    %rbp
  401ef3:	c3                   	retq   

0000000000401ef4 <bli_zero_dim3>:
  401ef4:	55                   	push   %rbp
  401ef5:	48 89 e5             	mov    %rsp,%rbp
  401ef8:	48 89 4d 10          	mov    %rcx,0x10(%rbp)
  401efc:	48 89 55 18          	mov    %rdx,0x18(%rbp)
  401f00:	4c 89 45 20          	mov    %r8,0x20(%rbp)
  401f04:	48 83 7d 10 00       	cmpq   $0x0,0x10(%rbp)
  401f09:	74 0e                	je     401f19 <bli_zero_dim3+0x25>
  401f0b:	48 83 7d 18 00       	cmpq   $0x0,0x18(%rbp)
  401f10:	74 07                	je     401f19 <bli_zero_dim3+0x25>
  401f12:	48 83 7d 20 00       	cmpq   $0x0,0x20(%rbp)
  401f17:	75 07                	jne    401f20 <bli_zero_dim3+0x2c>
  401f19:	b8 01 00 00 00       	mov    $0x1,%eax
  401f1e:	eb 05                	jmp    401f25 <bli_zero_dim3+0x31>
  401f20:	b8 00 00 00 00       	mov    $0x0,%eax
  401f25:	83 e0 01             	and    $0x1,%eax
  401f28:	5d                   	pop    %rbp
  401f29:	c3                   	retq   

0000000000401f2a <bli_nonzero_dim>:
  401f2a:	55                   	push   %rbp
  401f2b:	48 89 e5             	mov    %rsp,%rbp
  401f2e:	48 89 4d 10          	mov    %rcx,0x10(%rbp)
  401f32:	48 83 7d 10 00       	cmpq   $0x0,0x10(%rbp)
  401f37:	0f 9f c0             	setg   %al
  401f3a:	5d                   	pop    %rbp
  401f3b:	c3                   	retq   

0000000000401f3c <bli_vector_dim>:
  401f3c:	55                   	push   %rbp
  401f3d:	48 89 e5             	mov    %rsp,%rbp
  401f40:	48 89 4d 10          	mov    %rcx,0x10(%rbp)
  401f44:	48 89 55 18          	mov    %rdx,0x18(%rbp)
  401f48:	48 83 7d 10 01       	cmpq   $0x1,0x10(%rbp)
  401f4d:	75 0a                	jne    401f59 <bli_vector_dim+0x1d>
  401f4f:	48 83 7d 18 00       	cmpq   $0x0,0x18(%rbp)
  401f54:	0f 95 c0             	setne  %al
  401f57:	eb 08                	jmp    401f61 <bli_vector_dim+0x25>
  401f59:	48 83 7d 10 00       	cmpq   $0x0,0x10(%rbp)
  401f5e:	0f 95 c0             	setne  %al
  401f61:	5d                   	pop    %rbp
  401f62:	c3                   	retq   

0000000000401f63 <bli_is_vector>:
  401f63:	55                   	push   %rbp
  401f64:	48 89 e5             	mov    %rsp,%rbp
  401f67:	48 89 4d 10          	mov    %rcx,0x10(%rbp)
  401f6b:	48 89 55 18          	mov    %rdx,0x18(%rbp)
  401f6f:	48 83 7d 10 01       	cmpq   $0x1,0x10(%rbp)
  401f74:	74 07                	je     401f7d <bli_is_vector+0x1a>
  401f76:	48 83 7d 18 01       	cmpq   $0x1,0x18(%rbp)
  401f7b:	75 07                	jne    401f84 <bli_is_vector+0x21>
  401f7d:	b8 01 00 00 00       	mov    $0x1,%eax
  401f82:	eb 05                	jmp    401f89 <bli_is_vector+0x26>
  401f84:	b8 00 00 00 00       	mov    $0x0,%eax
  401f89:	83 e0 01             	and    $0x1,%eax
  401f8c:	5d                   	pop    %rbp
  401f8d:	c3                   	retq   

0000000000401f8e <bli_is_row_vector>:
  401f8e:	55                   	push   %rbp
  401f8f:	48 89 e5             	mov    %rsp,%rbp
  401f92:	48 89 4d 10          	mov    %rcx,0x10(%rbp)
  401f96:	48 89 55 18          	mov    %rdx,0x18(%rbp)
  401f9a:	48 83 7d 10 01       	cmpq   $0x1,0x10(%rbp)
  401f9f:	0f 94 c0             	sete   %al
  401fa2:	5d                   	pop    %rbp
  401fa3:	c3                   	retq   

0000000000401fa4 <bli_is_col_vector>:
  401fa4:	55                   	push   %rbp
  401fa5:	48 89 e5             	mov    %rsp,%rbp
  401fa8:	48 89 4d 10          	mov    %rcx,0x10(%rbp)
  401fac:	48 89 55 18          	mov    %rdx,0x18(%rbp)
  401fb0:	48 83 7d 18 01       	cmpq   $0x1,0x18(%rbp)
  401fb5:	0f 94 c0             	sete   %al
  401fb8:	5d                   	pop    %rbp
  401fb9:	c3                   	retq   

0000000000401fba <bli_set_dim_with_side>:
  401fba:	55                   	push   %rbp
  401fbb:	48 89 e5             	mov    %rsp,%rbp
  401fbe:	48 83 ec 20          	sub    $0x20,%rsp
  401fc2:	89 4d 10             	mov    %ecx,0x10(%rbp)
  401fc5:	48 89 55 18          	mov    %rdx,0x18(%rbp)
  401fc9:	4c 89 45 20          	mov    %r8,0x20(%rbp)
  401fcd:	4c 89 4d 28          	mov    %r9,0x28(%rbp)
  401fd1:	8b 4d 10             	mov    0x10(%rbp),%ecx
  401fd4:	e8 a0 fc ff ff       	callq  401c79 <bli_is_left>
  401fd9:	84 c0                	test   %al,%al
  401fdb:	74 0d                	je     401fea <bli_set_dim_with_side+0x30>
  401fdd:	48 8b 45 28          	mov    0x28(%rbp),%rax
  401fe1:	48 8b 55 18          	mov    0x18(%rbp),%rdx
  401fe5:	48 89 10             	mov    %rdx,(%rax)
  401fe8:	eb 0b                	jmp    401ff5 <bli_set_dim_with_side+0x3b>
  401fea:	48 8b 45 28          	mov    0x28(%rbp),%rax
  401fee:	48 8b 55 20          	mov    0x20(%rbp),%rdx
  401ff2:	48 89 10             	mov    %rdx,(%rax)
  401ff5:	90                   	nop
  401ff6:	48 83 c4 20          	add    $0x20,%rsp
  401ffa:	5d                   	pop    %rbp
  401ffb:	c3                   	retq   

0000000000401ffc <bli_set_dims_with_trans>:
  401ffc:	55                   	push   %rbp
  401ffd:	48 89 e5             	mov    %rsp,%rbp
  402000:	48 83 ec 20          	sub    $0x20,%rsp
  402004:	89 4d 10             	mov    %ecx,0x10(%rbp)
  402007:	48 89 55 18          	mov    %rdx,0x18(%rbp)
  40200b:	4c 89 45 20          	mov    %r8,0x20(%rbp)
  40200f:	4c 89 4d 28          	mov    %r9,0x28(%rbp)
  402013:	8b 4d 10             	mov    0x10(%rbp),%ecx
  402016:	e8 aa fb ff ff       	callq  401bc5 <bli_does_notrans>
  40201b:	84 c0                	test   %al,%al
  40201d:	74 18                	je     402037 <bli_set_dims_with_trans+0x3b>
  40201f:	48 8b 45 28          	mov    0x28(%rbp),%rax
  402023:	48 8b 55 18          	mov    0x18(%rbp),%rdx
  402027:	48 89 10             	mov    %rdx,(%rax)
  40202a:	48 8b 45 30          	mov    0x30(%rbp),%rax
  40202e:	48 8b 55 20          	mov    0x20(%rbp),%rdx
  402032:	48 89 10             	mov    %rdx,(%rax)
  402035:	eb 16                	jmp    40204d <bli_set_dims_with_trans+0x51>
  402037:	48 8b 45 28          	mov    0x28(%rbp),%rax
  40203b:	48 8b 55 20          	mov    0x20(%rbp),%rdx
  40203f:	48 89 10             	mov    %rdx,(%rax)
  402042:	48 8b 45 30          	mov    0x30(%rbp),%rax
  402046:	48 8b 55 18          	mov    0x18(%rbp),%rdx
  40204a:	48 89 10             	mov    %rdx,(%rax)
  40204d:	90                   	nop
  40204e:	48 83 c4 20          	add    $0x20,%rsp
  402052:	5d                   	pop    %rbp
  402053:	c3                   	retq   

0000000000402054 <bli_set_dims_incs_with_trans>:
  402054:	55                   	push   %rbp
  402055:	48 89 e5             	mov    %rsp,%rbp
  402058:	48 83 ec 20          	sub    $0x20,%rsp
  40205c:	89 4d 10             	mov    %ecx,0x10(%rbp)
  40205f:	48 89 55 18          	mov    %rdx,0x18(%rbp)
  402063:	4c 89 45 20          	mov    %r8,0x20(%rbp)
  402067:	4c 89 4d 28          	mov    %r9,0x28(%rbp)
  40206b:	8b 4d 10             	mov    0x10(%rbp),%ecx
  40206e:	e8 52 fb ff ff       	callq  401bc5 <bli_does_notrans>
  402073:	84 c0                	test   %al,%al
  402075:	74 2e                	je     4020a5 <bli_set_dims_incs_with_trans+0x51>
  402077:	48 8b 45 38          	mov    0x38(%rbp),%rax
  40207b:	48 8b 55 18          	mov    0x18(%rbp),%rdx
  40207f:	48 89 10             	mov    %rdx,(%rax)
  402082:	48 8b 45 40          	mov    0x40(%rbp),%rax
  402086:	48 8b 55 20          	mov    0x20(%rbp),%rdx
  40208a:	48 89 10             	mov    %rdx,(%rax)
  40208d:	48 8b 45 48          	mov    0x48(%rbp),%rax
  402091:	48 8b 55 28          	mov    0x28(%rbp),%rdx
  402095:	48 89 10             	mov    %rdx,(%rax)
  402098:	48 8b 45 50          	mov    0x50(%rbp),%rax
  40209c:	48 8b 55 30          	mov    0x30(%rbp),%rdx
  4020a0:	48 89 10             	mov    %rdx,(%rax)
  4020a3:	eb 2c                	jmp    4020d1 <bli_set_dims_incs_with_trans+0x7d>
  4020a5:	48 8b 45 38          	mov    0x38(%rbp),%rax
  4020a9:	48 8b 55 20          	mov    0x20(%rbp),%rdx
  4020ad:	48 89 10             	mov    %rdx,(%rax)
  4020b0:	48 8b 45 40          	mov    0x40(%rbp),%rax
  4020b4:	48 8b 55 18          	mov    0x18(%rbp),%rdx
  4020b8:	48 89 10             	mov    %rdx,(%rax)
  4020bb:	48 8b 45 48          	mov    0x48(%rbp),%rax
  4020bf:	48 8b 55 30          	mov    0x30(%rbp),%rdx
  4020c3:	48 89 10             	mov    %rdx,(%rax)
  4020c6:	48 8b 45 50          	mov    0x50(%rbp),%rax
  4020ca:	48 8b 55 28          	mov    0x28(%rbp),%rdx
  4020ce:	48 89 10             	mov    %rdx,(%rax)
  4020d1:	90                   	nop
  4020d2:	48 83 c4 20          	add    $0x20,%rsp
  4020d6:	5d                   	pop    %rbp
  4020d7:	c3                   	retq   

00000000004020d8 <bli_determine_blocksize_dim_f>:
  4020d8:	55                   	push   %rbp
  4020d9:	48 89 e5             	mov    %rsp,%rbp
  4020dc:	48 89 4d 10          	mov    %rcx,0x10(%rbp)
  4020e0:	48 89 55 18          	mov    %rdx,0x18(%rbp)
  4020e4:	4c 89 45 20          	mov    %r8,0x20(%rbp)
  4020e8:	48 8b 45 18          	mov    0x18(%rbp),%rax
  4020ec:	48 2b 45 10          	sub    0x10(%rbp),%rax
  4020f0:	48 39 45 20          	cmp    %rax,0x20(%rbp)
  4020f4:	48 0f 4e 45 20       	cmovle 0x20(%rbp),%rax
  4020f9:	5d                   	pop    %rbp
  4020fa:	c3                   	retq   

00000000004020fb <bli_determine_blocksize_dim_b>:
  4020fb:	55                   	push   %rbp
  4020fc:	48 89 e5             	mov    %rsp,%rbp
  4020ff:	48 89 4d 10          	mov    %rcx,0x10(%rbp)
  402103:	48 89 55 18          	mov    %rdx,0x18(%rbp)
  402107:	4c 89 45 20          	mov    %r8,0x20(%rbp)
  40210b:	48 83 7d 10 00       	cmpq   $0x0,0x10(%rbp)
  402110:	75 21                	jne    402133 <bli_determine_blocksize_dim_b+0x38>
  402112:	48 8b 45 18          	mov    0x18(%rbp),%rax
  402116:	48 99                	cqto   
  402118:	48 f7 7d 20          	idivq  0x20(%rbp)
  40211c:	48 89 d0             	mov    %rdx,%rax
  40211f:	48 85 c0             	test   %rax,%rax
  402122:	74 0f                	je     402133 <bli_determine_blocksize_dim_b+0x38>
  402124:	48 8b 45 18          	mov    0x18(%rbp),%rax
  402128:	48 99                	cqto   
  40212a:	48 f7 7d 20          	idivq  0x20(%rbp)
  40212e:	48 89 d0             	mov    %rdx,%rax
  402131:	eb 04                	jmp    402137 <bli_determine_blocksize_dim_b+0x3c>
  402133:	48 8b 45 20          	mov    0x20(%rbp),%rax
  402137:	5d                   	pop    %rbp
  402138:	c3                   	retq   

0000000000402139 <bli_vector_inc>:
  402139:	55                   	push   %rbp
  40213a:	48 89 e5             	mov    %rsp,%rbp
  40213d:	48 83 ec 20          	sub    $0x20,%rsp
  402141:	89 4d 10             	mov    %ecx,0x10(%rbp)
  402144:	48 89 55 18          	mov    %rdx,0x18(%rbp)
  402148:	4c 89 45 20          	mov    %r8,0x20(%rbp)
  40214c:	4c 89 4d 28          	mov    %r9,0x28(%rbp)
  402150:	8b 4d 10             	mov    0x10(%rbp),%ecx
  402153:	e8 6d fa ff ff       	callq  401bc5 <bli_does_notrans>
  402158:	84 c0                	test   %al,%al
  40215a:	74 13                	je     40216f <bli_vector_inc+0x36>
  40215c:	48 83 7d 18 01       	cmpq   $0x1,0x18(%rbp)
  402161:	75 06                	jne    402169 <bli_vector_inc+0x30>
  402163:	48 8b 45 30          	mov    0x30(%rbp),%rax
  402167:	eb 17                	jmp    402180 <bli_vector_inc+0x47>
  402169:	48 8b 45 28          	mov    0x28(%rbp),%rax
  40216d:	eb 11                	jmp    402180 <bli_vector_inc+0x47>
  40216f:	48 83 7d 18 01       	cmpq   $0x1,0x18(%rbp)
  402174:	75 06                	jne    40217c <bli_vector_inc+0x43>
  402176:	48 8b 45 28          	mov    0x28(%rbp),%rax
  40217a:	eb 04                	jmp    402180 <bli_vector_inc+0x47>
  40217c:	48 8b 45 30          	mov    0x30(%rbp),%rax
  402180:	48 83 c4 20          	add    $0x20,%rsp
  402184:	5d                   	pop    %rbp
  402185:	c3                   	retq   

0000000000402186 <bli_is_row_stored>:
  402186:	55                   	push   %rbp
  402187:	48 89 e5             	mov    %rsp,%rbp
  40218a:	48 89 4d 10          	mov    %rcx,0x10(%rbp)
  40218e:	48 89 55 18          	mov    %rdx,0x18(%rbp)
  402192:	48 8b 45 18          	mov    0x18(%rbp),%rax
  402196:	48 99                	cqto   
  402198:	48 89 d0             	mov    %rdx,%rax
  40219b:	48 33 45 18          	xor    0x18(%rbp),%rax
  40219f:	48 29 d0             	sub    %rdx,%rax
  4021a2:	48 83 f8 01          	cmp    $0x1,%rax
  4021a6:	0f 94 c0             	sete   %al
  4021a9:	5d                   	pop    %rbp
  4021aa:	c3                   	retq   

00000000004021ab <bli_is_col_stored>:
  4021ab:	55                   	push   %rbp
  4021ac:	48 89 e5             	mov    %rsp,%rbp
  4021af:	48 89 4d 10          	mov    %rcx,0x10(%rbp)
  4021b3:	48 89 55 18          	mov    %rdx,0x18(%rbp)
  4021b7:	48 8b 45 10          	mov    0x10(%rbp),%rax
  4021bb:	48 99                	cqto   
  4021bd:	48 89 d0             	mov    %rdx,%rax
  4021c0:	48 33 45 10          	xor    0x10(%rbp),%rax
  4021c4:	48 29 d0             	sub    %rdx,%rax
  4021c7:	48 83 f8 01          	cmp    $0x1,%rax
  4021cb:	0f 94 c0             	sete   %al
  4021ce:	5d                   	pop    %rbp
  4021cf:	c3                   	retq   

00000000004021d0 <bli_is_row_stored_f>:
  4021d0:	55                   	push   %rbp
  4021d1:	48 89 e5             	mov    %rsp,%rbp
  4021d4:	48 89 4d 10          	mov    %rcx,0x10(%rbp)
  4021d8:	48 89 55 18          	mov    %rdx,0x18(%rbp)
  4021dc:	4c 89 45 20          	mov    %r8,0x20(%rbp)
  4021e0:	4c 89 4d 28          	mov    %r9,0x28(%rbp)
  4021e4:	48 83 7d 28 01       	cmpq   $0x1,0x28(%rbp)
  4021e9:	75 15                	jne    402200 <bli_is_row_stored_f+0x30>
  4021eb:	48 83 7d 20 01       	cmpq   $0x1,0x20(%rbp)
  4021f0:	7f 07                	jg     4021f9 <bli_is_row_stored_f+0x29>
  4021f2:	48 83 7d 18 01       	cmpq   $0x1,0x18(%rbp)
  4021f7:	75 07                	jne    402200 <bli_is_row_stored_f+0x30>
  4021f9:	b8 01 00 00 00       	mov    $0x1,%eax
  4021fe:	eb 05                	jmp    402205 <bli_is_row_stored_f+0x35>
  402200:	b8 00 00 00 00       	mov    $0x0,%eax
  402205:	83 e0 01             	and    $0x1,%eax
  402208:	5d                   	pop    %rbp
  402209:	c3                   	retq   

000000000040220a <bli_is_col_stored_f>:
  40220a:	55                   	push   %rbp
  40220b:	48 89 e5             	mov    %rsp,%rbp
  40220e:	48 89 4d 10          	mov    %rcx,0x10(%rbp)
  402212:	48 89 55 18          	mov    %rdx,0x18(%rbp)
  402216:	4c 89 45 20          	mov    %r8,0x20(%rbp)
  40221a:	4c 89 4d 28          	mov    %r9,0x28(%rbp)
  40221e:	48 83 7d 20 01       	cmpq   $0x1,0x20(%rbp)
  402223:	75 15                	jne    40223a <bli_is_col_stored_f+0x30>
  402225:	48 83 7d 28 01       	cmpq   $0x1,0x28(%rbp)
  40222a:	7f 07                	jg     402233 <bli_is_col_stored_f+0x29>
  40222c:	48 83 7d 10 01       	cmpq   $0x1,0x10(%rbp)
  402231:	75 07                	jne    40223a <bli_is_col_stored_f+0x30>
  402233:	b8 01 00 00 00       	mov    $0x1,%eax
  402238:	eb 05                	jmp    40223f <bli_is_col_stored_f+0x35>
  40223a:	b8 00 00 00 00       	mov    $0x0,%eax
  40223f:	83 e0 01             	and    $0x1,%eax
  402242:	5d                   	pop    %rbp
  402243:	c3                   	retq   

0000000000402244 <bli_is_gen_stored>:
  402244:	55                   	push   %rbp
  402245:	48 89 e5             	mov    %rsp,%rbp
  402248:	48 89 4d 10          	mov    %rcx,0x10(%rbp)
  40224c:	48 89 55 18          	mov    %rdx,0x18(%rbp)
  402250:	48 8b 45 10          	mov    0x10(%rbp),%rax
  402254:	48 99                	cqto   
  402256:	48 89 d0             	mov    %rdx,%rax
  402259:	48 33 45 10          	xor    0x10(%rbp),%rax
  40225d:	48 29 d0             	sub    %rdx,%rax
  402260:	48 83 f8 01          	cmp    $0x1,%rax
  402264:	74 1d                	je     402283 <bli_is_gen_stored+0x3f>
  402266:	48 8b 45 18          	mov    0x18(%rbp),%rax
  40226a:	48 99                	cqto   
  40226c:	48 89 d0             	mov    %rdx,%rax
  40226f:	48 33 45 18          	xor    0x18(%rbp),%rax
  402273:	48 29 d0             	sub    %rdx,%rax
  402276:	48 83 f8 01          	cmp    $0x1,%rax
  40227a:	74 07                	je     402283 <bli_is_gen_stored+0x3f>
  40227c:	b8 01 00 00 00       	mov    $0x1,%eax
  402281:	eb 05                	jmp    402288 <bli_is_gen_stored+0x44>
  402283:	b8 00 00 00 00       	mov    $0x0,%eax
  402288:	83 e0 01             	and    $0x1,%eax
  40228b:	5d                   	pop    %rbp
  40228c:	c3                   	retq   

000000000040228d <bli_is_row_tilted>:
  40228d:	55                   	push   %rbp
  40228e:	48 89 e5             	mov    %rsp,%rbp
  402291:	48 89 4d 10          	mov    %rcx,0x10(%rbp)
  402295:	48 89 55 18          	mov    %rdx,0x18(%rbp)
  402299:	4c 89 45 20          	mov    %r8,0x20(%rbp)
  40229d:	4c 89 4d 28          	mov    %r9,0x28(%rbp)
  4022a1:	48 8b 45 28          	mov    0x28(%rbp),%rax
  4022a5:	48 c1 f8 3f          	sar    $0x3f,%rax
  4022a9:	48 89 c2             	mov    %rax,%rdx
  4022ac:	48 33 55 28          	xor    0x28(%rbp),%rdx
  4022b0:	48 29 c2             	sub    %rax,%rdx
  4022b3:	48 8b 45 20          	mov    0x20(%rbp),%rax
  4022b7:	48 c1 f8 3f          	sar    $0x3f,%rax
  4022bb:	48 89 c1             	mov    %rax,%rcx
  4022be:	48 89 c8             	mov    %rcx,%rax
  4022c1:	48 33 45 20          	xor    0x20(%rbp),%rax
  4022c5:	48 29 c8             	sub    %rcx,%rax
  4022c8:	48 39 c2             	cmp    %rax,%rdx
  4022cb:	75 0d                	jne    4022da <bli_is_row_tilted+0x4d>
  4022cd:	48 8b 45 18          	mov    0x18(%rbp),%rax
  4022d1:	48 3b 45 10          	cmp    0x10(%rbp),%rax
  4022d5:	0f 9c c0             	setl   %al
  4022d8:	eb 2d                	jmp    402307 <bli_is_row_tilted+0x7a>
  4022da:	48 8b 45 28          	mov    0x28(%rbp),%rax
  4022de:	48 c1 f8 3f          	sar    $0x3f,%rax
  4022e2:	48 89 c2             	mov    %rax,%rdx
  4022e5:	48 33 55 28          	xor    0x28(%rbp),%rdx
  4022e9:	48 29 c2             	sub    %rax,%rdx
  4022ec:	48 8b 45 20          	mov    0x20(%rbp),%rax
  4022f0:	48 c1 f8 3f          	sar    $0x3f,%rax
  4022f4:	48 89 c1             	mov    %rax,%rcx
  4022f7:	48 89 c8             	mov    %rcx,%rax
  4022fa:	48 33 45 20          	xor    0x20(%rbp),%rax
  4022fe:	48 29 c8             	sub    %rcx,%rax
  402301:	48 39 c2             	cmp    %rax,%rdx
  402304:	0f 9c c0             	setl   %al
  402307:	5d                   	pop    %rbp
  402308:	c3                   	retq   

0000000000402309 <bli_is_col_tilted>:
  402309:	55                   	push   %rbp
  40230a:	48 89 e5             	mov    %rsp,%rbp
  40230d:	48 89 4d 10          	mov    %rcx,0x10(%rbp)
  402311:	48 89 55 18          	mov    %rdx,0x18(%rbp)
  402315:	4c 89 45 20          	mov    %r8,0x20(%rbp)
  402319:	4c 89 4d 28          	mov    %r9,0x28(%rbp)
  40231d:	48 8b 45 20          	mov    0x20(%rbp),%rax
  402321:	48 c1 f8 3f          	sar    $0x3f,%rax
  402325:	48 89 c2             	mov    %rax,%rdx
  402328:	48 33 55 20          	xor    0x20(%rbp),%rdx
  40232c:	48 29 c2             	sub    %rax,%rdx
  40232f:	48 8b 45 28          	mov    0x28(%rbp),%rax
  402333:	48 c1 f8 3f          	sar    $0x3f,%rax
  402337:	48 89 c1             	mov    %rax,%rcx
  40233a:	48 89 c8             	mov    %rcx,%rax
  40233d:	48 33 45 28          	xor    0x28(%rbp),%rax
  402341:	48 29 c8             	sub    %rcx,%rax
  402344:	48 39 c2             	cmp    %rax,%rdx
  402347:	75 0d                	jne    402356 <bli_is_col_tilted+0x4d>
  402349:	48 8b 45 10          	mov    0x10(%rbp),%rax
  40234d:	48 3b 45 18          	cmp    0x18(%rbp),%rax
  402351:	0f 9c c0             	setl   %al
  402354:	eb 2d                	jmp    402383 <bli_is_col_tilted+0x7a>
  402356:	48 8b 45 20          	mov    0x20(%rbp),%rax
  40235a:	48 c1 f8 3f          	sar    $0x3f,%rax
  40235e:	48 89 c2             	mov    %rax,%rdx
  402361:	48 33 55 20          	xor    0x20(%rbp),%rdx
  402365:	48 29 c2             	sub    %rax,%rdx
  402368:	48 8b 45 28          	mov    0x28(%rbp),%rax
  40236c:	48 c1 f8 3f          	sar    $0x3f,%rax
  402370:	48 89 c1             	mov    %rax,%rcx
  402373:	48 89 c8             	mov    %rcx,%rax
  402376:	48 33 45 28          	xor    0x28(%rbp),%rax
  40237a:	48 29 c8             	sub    %rcx,%rax
  40237d:	48 39 c2             	cmp    %rax,%rdx
  402380:	0f 9c c0             	setl   %al
  402383:	5d                   	pop    %rbp
  402384:	c3                   	retq   

0000000000402385 <bli_has_nonunit_inc1>:
  402385:	55                   	push   %rbp
  402386:	48 89 e5             	mov    %rsp,%rbp
  402389:	48 89 4d 10          	mov    %rcx,0x10(%rbp)
  40238d:	48 83 7d 10 01       	cmpq   $0x1,0x10(%rbp)
  402392:	0f 95 c0             	setne  %al
  402395:	5d                   	pop    %rbp
  402396:	c3                   	retq   

0000000000402397 <bli_has_nonunit_inc2>:
  402397:	55                   	push   %rbp
  402398:	48 89 e5             	mov    %rsp,%rbp
  40239b:	48 89 4d 10          	mov    %rcx,0x10(%rbp)
  40239f:	48 89 55 18          	mov    %rdx,0x18(%rbp)
  4023a3:	48 83 7d 10 01       	cmpq   $0x1,0x10(%rbp)
  4023a8:	75 07                	jne    4023b1 <bli_has_nonunit_inc2+0x1a>
  4023aa:	48 83 7d 18 01       	cmpq   $0x1,0x18(%rbp)
  4023af:	74 07                	je     4023b8 <bli_has_nonunit_inc2+0x21>
  4023b1:	b8 01 00 00 00       	mov    $0x1,%eax
  4023b6:	eb 05                	jmp    4023bd <bli_has_nonunit_inc2+0x26>
  4023b8:	b8 00 00 00 00       	mov    $0x0,%eax
  4023bd:	83 e0 01             	and    $0x1,%eax
  4023c0:	5d                   	pop    %rbp
  4023c1:	c3                   	retq   

00000000004023c2 <bli_has_nonunit_inc3>:
  4023c2:	55                   	push   %rbp
  4023c3:	48 89 e5             	mov    %rsp,%rbp
  4023c6:	48 89 4d 10          	mov    %rcx,0x10(%rbp)
  4023ca:	48 89 55 18          	mov    %rdx,0x18(%rbp)
  4023ce:	4c 89 45 20          	mov    %r8,0x20(%rbp)
  4023d2:	48 83 7d 10 01       	cmpq   $0x1,0x10(%rbp)
  4023d7:	75 0e                	jne    4023e7 <bli_has_nonunit_inc3+0x25>
  4023d9:	48 83 7d 18 01       	cmpq   $0x1,0x18(%rbp)
  4023de:	75 07                	jne    4023e7 <bli_has_nonunit_inc3+0x25>
  4023e0:	48 83 7d 20 01       	cmpq   $0x1,0x20(%rbp)
  4023e5:	74 07                	je     4023ee <bli_has_nonunit_inc3+0x2c>
  4023e7:	b8 01 00 00 00       	mov    $0x1,%eax
  4023ec:	eb 05                	jmp    4023f3 <bli_has_nonunit_inc3+0x31>
  4023ee:	b8 00 00 00 00       	mov    $0x0,%eax
  4023f3:	83 e0 01             	and    $0x1,%eax
  4023f6:	5d                   	pop    %rbp
  4023f7:	c3                   	retq   

00000000004023f8 <bli_negate_diag_offset>:
  4023f8:	55                   	push   %rbp
  4023f9:	48 89 e5             	mov    %rsp,%rbp
  4023fc:	48 89 4d 10          	mov    %rcx,0x10(%rbp)
  402400:	48 8b 45 10          	mov    0x10(%rbp),%rax
  402404:	48 8b 00             	mov    (%rax),%rax
  402407:	48 f7 d8             	neg    %rax
  40240a:	48 89 c2             	mov    %rax,%rdx
  40240d:	48 8b 45 10          	mov    0x10(%rbp),%rax
  402411:	48 89 10             	mov    %rdx,(%rax)
  402414:	90                   	nop
  402415:	5d                   	pop    %rbp
  402416:	c3                   	retq   

0000000000402417 <bli_shift_diag_offset_to_grow_uplo>:
  402417:	55                   	push   %rbp
  402418:	48 89 e5             	mov    %rsp,%rbp
  40241b:	48 83 ec 20          	sub    $0x20,%rsp
  40241f:	89 4d 10             	mov    %ecx,0x10(%rbp)
  402422:	48 89 55 18          	mov    %rdx,0x18(%rbp)
  402426:	8b 4d 10             	mov    0x10(%rbp),%ecx
  402429:	e8 c2 f8 ff ff       	callq  401cf0 <bli_is_upper>
  40242e:	84 c0                	test   %al,%al
  402430:	74 14                	je     402446 <bli_shift_diag_offset_to_grow_uplo+0x2f>
  402432:	48 8b 45 18          	mov    0x18(%rbp),%rax
  402436:	48 8b 00             	mov    (%rax),%rax
  402439:	48 8d 50 ff          	lea    -0x1(%rax),%rdx
  40243d:	48 8b 45 18          	mov    0x18(%rbp),%rax
  402441:	48 89 10             	mov    %rdx,(%rax)
  402444:	eb 1e                	jmp    402464 <bli_shift_diag_offset_to_grow_uplo+0x4d>
  402446:	8b 4d 10             	mov    0x10(%rbp),%ecx
  402449:	e8 8f f8 ff ff       	callq  401cdd <bli_is_lower>
  40244e:	84 c0                	test   %al,%al
  402450:	74 12                	je     402464 <bli_shift_diag_offset_to_grow_uplo+0x4d>
  402452:	48 8b 45 18          	mov    0x18(%rbp),%rax
  402456:	48 8b 00             	mov    (%rax),%rax
  402459:	48 8d 50 01          	lea    0x1(%rax),%rdx
  40245d:	48 8b 45 18          	mov    0x18(%rbp),%rax
  402461:	48 89 10             	mov    %rdx,(%rax)
  402464:	90                   	nop
  402465:	48 83 c4 20          	add    $0x20,%rsp
  402469:	5d                   	pop    %rbp
  40246a:	c3                   	retq   

000000000040246b <bli_shift_diag_offset_to_shrink_uplo>:
  40246b:	55                   	push   %rbp
  40246c:	48 89 e5             	mov    %rsp,%rbp
  40246f:	48 83 ec 20          	sub    $0x20,%rsp
  402473:	89 4d 10             	mov    %ecx,0x10(%rbp)
  402476:	48 89 55 18          	mov    %rdx,0x18(%rbp)
  40247a:	8b 4d 10             	mov    0x10(%rbp),%ecx
  40247d:	e8 6e f8 ff ff       	callq  401cf0 <bli_is_upper>
  402482:	84 c0                	test   %al,%al
  402484:	74 14                	je     40249a <bli_shift_diag_offset_to_shrink_uplo+0x2f>
  402486:	48 8b 45 18          	mov    0x18(%rbp),%rax
  40248a:	48 8b 00             	mov    (%rax),%rax
  40248d:	48 8d 50 01          	lea    0x1(%rax),%rdx
  402491:	48 8b 45 18          	mov    0x18(%rbp),%rax
  402495:	48 89 10             	mov    %rdx,(%rax)
  402498:	eb 1e                	jmp    4024b8 <bli_shift_diag_offset_to_shrink_uplo+0x4d>
  40249a:	8b 4d 10             	mov    0x10(%rbp),%ecx
  40249d:	e8 3b f8 ff ff       	callq  401cdd <bli_is_lower>
  4024a2:	84 c0                	test   %al,%al
  4024a4:	74 12                	je     4024b8 <bli_shift_diag_offset_to_shrink_uplo+0x4d>
  4024a6:	48 8b 45 18          	mov    0x18(%rbp),%rax
  4024aa:	48 8b 00             	mov    (%rax),%rax
  4024ad:	48 8d 50 ff          	lea    -0x1(%rax),%rdx
  4024b1:	48 8b 45 18          	mov    0x18(%rbp),%rax
  4024b5:	48 89 10             	mov    %rdx,(%rax)
  4024b8:	90                   	nop
  4024b9:	48 83 c4 20          	add    $0x20,%rsp
  4024bd:	5d                   	pop    %rbp
  4024be:	c3                   	retq   

00000000004024bf <bli_diag_offset_with_trans>:
  4024bf:	55                   	push   %rbp
  4024c0:	48 89 e5             	mov    %rsp,%rbp
  4024c3:	48 83 ec 20          	sub    $0x20,%rsp
  4024c7:	89 4d 10             	mov    %ecx,0x10(%rbp)
  4024ca:	48 89 55 18          	mov    %rdx,0x18(%rbp)
  4024ce:	8b 4d 10             	mov    0x10(%rbp),%ecx
  4024d1:	e8 03 f7 ff ff       	callq  401bd9 <bli_does_trans>
  4024d6:	48 83 7d 18 00       	cmpq   $0x0,0x18(%rbp)
  4024db:	0f 95 c0             	setne  %al
  4024de:	48 83 c4 20          	add    $0x20,%rsp
  4024e2:	5d                   	pop    %rbp
  4024e3:	c3                   	retq   

00000000004024e4 <bli_is_strictly_above_diag>:
  4024e4:	55                   	push   %rbp
  4024e5:	48 89 e5             	mov    %rsp,%rbp
  4024e8:	48 83 ec 20          	sub    $0x20,%rsp
  4024ec:	48 89 4d 10          	mov    %rcx,0x10(%rbp)
  4024f0:	89 55 18             	mov    %edx,0x18(%rbp)
  4024f3:	4c 89 45 20          	mov    %r8,0x20(%rbp)
  4024f7:	4c 89 4d 28          	mov    %r9,0x28(%rbp)
  4024fb:	8b 45 18             	mov    0x18(%rbp),%eax
  4024fe:	89 c1                	mov    %eax,%ecx
  402500:	e8 d4 f6 ff ff       	callq  401bd9 <bli_does_trans>
  402505:	84 c0                	test   %al,%al
  402507:	74 10                	je     402519 <bli_is_strictly_above_diag+0x35>
  402509:	48 8b 45 10          	mov    0x10(%rbp),%rax
  40250d:	48 f7 d8             	neg    %rax
  402510:	48 39 45 28          	cmp    %rax,0x28(%rbp)
  402514:	0f 9e c0             	setle  %al
  402517:	eb 0e                	jmp    402527 <bli_is_strictly_above_diag+0x43>
  402519:	48 8b 45 10          	mov    0x10(%rbp),%rax
  40251d:	48 f7 d8             	neg    %rax
  402520:	48 39 45 20          	cmp    %rax,0x20(%rbp)
  402524:	0f 9e c0             	setle  %al
  402527:	48 83 c4 20          	add    $0x20,%rsp
  40252b:	5d                   	pop    %rbp
  40252c:	c3                   	retq   

000000000040252d <bli_is_strictly_below_diag>:
  40252d:	55                   	push   %rbp
  40252e:	48 89 e5             	mov    %rsp,%rbp
  402531:	48 83 ec 20          	sub    $0x20,%rsp
  402535:	48 89 4d 10          	mov    %rcx,0x10(%rbp)
  402539:	89 55 18             	mov    %edx,0x18(%rbp)
  40253c:	4c 89 45 20          	mov    %r8,0x20(%rbp)
  402540:	4c 89 4d 28          	mov    %r9,0x28(%rbp)
  402544:	8b 45 18             	mov    0x18(%rbp),%eax
  402547:	89 c1                	mov    %eax,%ecx
  402549:	e8 8b f6 ff ff       	callq  401bd9 <bli_does_trans>
  40254e:	84 c0                	test   %al,%al
  402550:	74 0d                	je     40255f <bli_is_strictly_below_diag+0x32>
  402552:	48 8b 45 20          	mov    0x20(%rbp),%rax
  402556:	48 3b 45 10          	cmp    0x10(%rbp),%rax
  40255a:	0f 9e c0             	setle  %al
  40255d:	eb 0b                	jmp    40256a <bli_is_strictly_below_diag+0x3d>
  40255f:	48 8b 45 28          	mov    0x28(%rbp),%rax
  402563:	48 3b 45 10          	cmp    0x10(%rbp),%rax
  402567:	0f 9e c0             	setle  %al
  40256a:	48 83 c4 20          	add    $0x20,%rsp
  40256e:	5d                   	pop    %rbp
  40256f:	c3                   	retq   

0000000000402570 <bli_is_outside_diag>:
  402570:	55                   	push   %rbp
  402571:	48 89 e5             	mov    %rsp,%rbp
  402574:	48 83 ec 20          	sub    $0x20,%rsp
  402578:	48 89 4d 10          	mov    %rcx,0x10(%rbp)
  40257c:	89 55 18             	mov    %edx,0x18(%rbp)
  40257f:	4c 89 45 20          	mov    %r8,0x20(%rbp)
  402583:	4c 89 4d 28          	mov    %r9,0x28(%rbp)
  402587:	48 8b 4d 28          	mov    0x28(%rbp),%rcx
  40258b:	48 8b 55 20          	mov    0x20(%rbp),%rdx
  40258f:	8b 45 18             	mov    0x18(%rbp),%eax
  402592:	49 89 c9             	mov    %rcx,%r9
  402595:	49 89 d0             	mov    %rdx,%r8
  402598:	89 c2                	mov    %eax,%edx
  40259a:	48 8b 4d 10          	mov    0x10(%rbp),%rcx
  40259e:	e8 41 ff ff ff       	callq  4024e4 <bli_is_strictly_above_diag>
  4025a3:	84 c0                	test   %al,%al
  4025a5:	75 20                	jne    4025c7 <bli_is_outside_diag+0x57>
  4025a7:	48 8b 4d 28          	mov    0x28(%rbp),%rcx
  4025ab:	48 8b 55 20          	mov    0x20(%rbp),%rdx
  4025af:	8b 45 18             	mov    0x18(%rbp),%eax
  4025b2:	49 89 c9             	mov    %rcx,%r9
  4025b5:	49 89 d0             	mov    %rdx,%r8
  4025b8:	89 c2                	mov    %eax,%edx
  4025ba:	48 8b 4d 10          	mov    0x10(%rbp),%rcx
  4025be:	e8 6a ff ff ff       	callq  40252d <bli_is_strictly_below_diag>
  4025c3:	84 c0                	test   %al,%al
  4025c5:	74 07                	je     4025ce <bli_is_outside_diag+0x5e>
  4025c7:	b8 01 00 00 00       	mov    $0x1,%eax
  4025cc:	eb 05                	jmp    4025d3 <bli_is_outside_diag+0x63>
  4025ce:	b8 00 00 00 00       	mov    $0x0,%eax
  4025d3:	83 e0 01             	and    $0x1,%eax
  4025d6:	48 83 c4 20          	add    $0x20,%rsp
  4025da:	5d                   	pop    %rbp
  4025db:	c3                   	retq   

00000000004025dc <bli_is_stored_subpart>:
  4025dc:	55                   	push   %rbp
  4025dd:	48 89 e5             	mov    %rsp,%rbp
  4025e0:	48 83 ec 20          	sub    $0x20,%rsp
  4025e4:	48 89 4d 10          	mov    %rcx,0x10(%rbp)
  4025e8:	89 55 18             	mov    %edx,0x18(%rbp)
  4025eb:	44 89 45 20          	mov    %r8d,0x20(%rbp)
  4025ef:	4c 89 4d 28          	mov    %r9,0x28(%rbp)
  4025f3:	8b 45 20             	mov    0x20(%rbp),%eax
  4025f6:	89 c1                	mov    %eax,%ecx
  4025f8:	e8 f3 f6 ff ff       	callq  401cf0 <bli_is_upper>
  4025fd:	84 c0                	test   %al,%al
  4025ff:	74 20                	je     402621 <bli_is_stored_subpart+0x45>
  402601:	48 8b 4d 30          	mov    0x30(%rbp),%rcx
  402605:	48 8b 55 28          	mov    0x28(%rbp),%rdx
  402609:	8b 45 18             	mov    0x18(%rbp),%eax
  40260c:	49 89 c9             	mov    %rcx,%r9
  40260f:	49 89 d0             	mov    %rdx,%r8
  402612:	89 c2                	mov    %eax,%edx
  402614:	48 8b 4d 10          	mov    0x10(%rbp),%rcx
  402618:	e8 c7 fe ff ff       	callq  4024e4 <bli_is_strictly_above_diag>
  40261d:	84 c0                	test   %al,%al
  40261f:	75 2e                	jne    40264f <bli_is_stored_subpart+0x73>
  402621:	8b 45 20             	mov    0x20(%rbp),%eax
  402624:	89 c1                	mov    %eax,%ecx
  402626:	e8 b2 f6 ff ff       	callq  401cdd <bli_is_lower>
  40262b:	84 c0                	test   %al,%al
  40262d:	74 27                	je     402656 <bli_is_stored_subpart+0x7a>
  40262f:	48 8b 4d 30          	mov    0x30(%rbp),%rcx
  402633:	48 8b 55 28          	mov    0x28(%rbp),%rdx
  402637:	8b 45 18             	mov    0x18(%rbp),%eax
  40263a:	49 89 c9             	mov    %rcx,%r9
  40263d:	49 89 d0             	mov    %rdx,%r8
  402640:	89 c2                	mov    %eax,%edx
  402642:	48 8b 4d 10          	mov    0x10(%rbp),%rcx
  402646:	e8 e2 fe ff ff       	callq  40252d <bli_is_strictly_below_diag>
  40264b:	84 c0                	test   %al,%al
  40264d:	74 07                	je     402656 <bli_is_stored_subpart+0x7a>
  40264f:	b8 01 00 00 00       	mov    $0x1,%eax
  402654:	eb 05                	jmp    40265b <bli_is_stored_subpart+0x7f>
  402656:	b8 00 00 00 00       	mov    $0x0,%eax
  40265b:	83 e0 01             	and    $0x1,%eax
  40265e:	48 83 c4 20          	add    $0x20,%rsp
  402662:	5d                   	pop    %rbp
  402663:	c3                   	retq   

0000000000402664 <bli_is_unstored_subpart>:
  402664:	55                   	push   %rbp
  402665:	48 89 e5             	mov    %rsp,%rbp
  402668:	48 83 ec 20          	sub    $0x20,%rsp
  40266c:	48 89 4d 10          	mov    %rcx,0x10(%rbp)
  402670:	89 55 18             	mov    %edx,0x18(%rbp)
  402673:	44 89 45 20          	mov    %r8d,0x20(%rbp)
  402677:	4c 89 4d 28          	mov    %r9,0x28(%rbp)
  40267b:	8b 45 20             	mov    0x20(%rbp),%eax
  40267e:	89 c1                	mov    %eax,%ecx
  402680:	e8 6b f6 ff ff       	callq  401cf0 <bli_is_upper>
  402685:	84 c0                	test   %al,%al
  402687:	74 20                	je     4026a9 <bli_is_unstored_subpart+0x45>
  402689:	48 8b 4d 30          	mov    0x30(%rbp),%rcx
  40268d:	48 8b 55 28          	mov    0x28(%rbp),%rdx
  402691:	8b 45 18             	mov    0x18(%rbp),%eax
  402694:	49 89 c9             	mov    %rcx,%r9
  402697:	49 89 d0             	mov    %rdx,%r8
  40269a:	89 c2                	mov    %eax,%edx
  40269c:	48 8b 4d 10          	mov    0x10(%rbp),%rcx
  4026a0:	e8 88 fe ff ff       	callq  40252d <bli_is_strictly_below_diag>
  4026a5:	84 c0                	test   %al,%al
  4026a7:	75 2e                	jne    4026d7 <bli_is_unstored_subpart+0x73>
  4026a9:	8b 45 20             	mov    0x20(%rbp),%eax
  4026ac:	89 c1                	mov    %eax,%ecx
  4026ae:	e8 2a f6 ff ff       	callq  401cdd <bli_is_lower>
  4026b3:	84 c0                	test   %al,%al
  4026b5:	74 27                	je     4026de <bli_is_unstored_subpart+0x7a>
  4026b7:	48 8b 4d 30          	mov    0x30(%rbp),%rcx
  4026bb:	48 8b 55 28          	mov    0x28(%rbp),%rdx
  4026bf:	8b 45 18             	mov    0x18(%rbp),%eax
  4026c2:	49 89 c9             	mov    %rcx,%r9
  4026c5:	49 89 d0             	mov    %rdx,%r8
  4026c8:	89 c2                	mov    %eax,%edx
  4026ca:	48 8b 4d 10          	mov    0x10(%rbp),%rcx
  4026ce:	e8 11 fe ff ff       	callq  4024e4 <bli_is_strictly_above_diag>
  4026d3:	84 c0                	test   %al,%al
  4026d5:	74 07                	je     4026de <bli_is_unstored_subpart+0x7a>
  4026d7:	b8 01 00 00 00       	mov    $0x1,%eax
  4026dc:	eb 05                	jmp    4026e3 <bli_is_unstored_subpart+0x7f>
  4026de:	b8 00 00 00 00       	mov    $0x0,%eax
  4026e3:	83 e0 01             	and    $0x1,%eax
  4026e6:	48 83 c4 20          	add    $0x20,%rsp
  4026ea:	5d                   	pop    %rbp
  4026eb:	c3                   	retq   

00000000004026ec <bli_is_strictly_above_diag_n>:
  4026ec:	55                   	push   %rbp
  4026ed:	48 89 e5             	mov    %rsp,%rbp
  4026f0:	48 89 4d 10          	mov    %rcx,0x10(%rbp)
  4026f4:	48 89 55 18          	mov    %rdx,0x18(%rbp)
  4026f8:	4c 89 45 20          	mov    %r8,0x20(%rbp)
  4026fc:	48 8b 45 10          	mov    0x10(%rbp),%rax
  402700:	48 f7 d8             	neg    %rax
  402703:	48 39 45 18          	cmp    %rax,0x18(%rbp)
  402707:	0f 9e c0             	setle  %al
  40270a:	5d                   	pop    %rbp
  40270b:	c3                   	retq   

000000000040270c <bli_is_strictly_below_diag_n>:
  40270c:	55                   	push   %rbp
  40270d:	48 89 e5             	mov    %rsp,%rbp
  402710:	48 89 4d 10          	mov    %rcx,0x10(%rbp)
  402714:	48 89 55 18          	mov    %rdx,0x18(%rbp)
  402718:	4c 89 45 20          	mov    %r8,0x20(%rbp)
  40271c:	48 8b 45 20          	mov    0x20(%rbp),%rax
  402720:	48 3b 45 10          	cmp    0x10(%rbp),%rax
  402724:	0f 9e c0             	setle  %al
  402727:	5d                   	pop    %rbp
  402728:	c3                   	retq   

0000000000402729 <bli_intersects_diag_n>:
  402729:	55                   	push   %rbp
  40272a:	48 89 e5             	mov    %rsp,%rbp
  40272d:	48 83 ec 20          	sub    $0x20,%rsp
  402731:	48 89 4d 10          	mov    %rcx,0x10(%rbp)
  402735:	48 89 55 18          	mov    %rdx,0x18(%rbp)
  402739:	4c 89 45 20          	mov    %r8,0x20(%rbp)
  40273d:	48 8b 55 20          	mov    0x20(%rbp),%rdx
  402741:	48 8b 45 18          	mov    0x18(%rbp),%rax
  402745:	49 89 d0             	mov    %rdx,%r8
  402748:	48 89 c2             	mov    %rax,%rdx
  40274b:	48 8b 4d 10          	mov    0x10(%rbp),%rcx
  40274f:	e8 98 ff ff ff       	callq  4026ec <bli_is_strictly_above_diag_n>
  402754:	83 f0 01             	xor    $0x1,%eax
  402757:	84 c0                	test   %al,%al
  402759:	74 25                	je     402780 <bli_intersects_diag_n+0x57>
  40275b:	48 8b 55 20          	mov    0x20(%rbp),%rdx
  40275f:	48 8b 45 18          	mov    0x18(%rbp),%rax
  402763:	49 89 d0             	mov    %rdx,%r8
  402766:	48 89 c2             	mov    %rax,%rdx
  402769:	48 8b 4d 10          	mov    0x10(%rbp),%rcx
  40276d:	e8 9a ff ff ff       	callq  40270c <bli_is_strictly_below_diag_n>
  402772:	83 f0 01             	xor    $0x1,%eax
  402775:	84 c0                	test   %al,%al
  402777:	74 07                	je     402780 <bli_intersects_diag_n+0x57>
  402779:	b8 01 00 00 00       	mov    $0x1,%eax
  40277e:	eb 05                	jmp    402785 <bli_intersects_diag_n+0x5c>
  402780:	b8 00 00 00 00       	mov    $0x0,%eax
  402785:	83 e0 01             	and    $0x1,%eax
  402788:	48 83 c4 20          	add    $0x20,%rsp
  40278c:	5d                   	pop    %rbp
  40278d:	c3                   	retq   

000000000040278e <bli_is_outside_diag_n>:
  40278e:	55                   	push   %rbp
  40278f:	48 89 e5             	mov    %rsp,%rbp
  402792:	48 83 ec 20          	sub    $0x20,%rsp
  402796:	48 89 4d 10          	mov    %rcx,0x10(%rbp)
  40279a:	48 89 55 18          	mov    %rdx,0x18(%rbp)
  40279e:	4c 89 45 20          	mov    %r8,0x20(%rbp)
  4027a2:	48 8b 55 20          	mov    0x20(%rbp),%rdx
  4027a6:	48 8b 45 18          	mov    0x18(%rbp),%rax
  4027aa:	49 89 d0             	mov    %rdx,%r8
  4027ad:	48 89 c2             	mov    %rax,%rdx
  4027b0:	48 8b 4d 10          	mov    0x10(%rbp),%rcx
  4027b4:	e8 33 ff ff ff       	callq  4026ec <bli_is_strictly_above_diag_n>
  4027b9:	84 c0                	test   %al,%al
  4027bb:	75 1b                	jne    4027d8 <bli_is_outside_diag_n+0x4a>
  4027bd:	48 8b 55 20          	mov    0x20(%rbp),%rdx
  4027c1:	48 8b 45 18          	mov    0x18(%rbp),%rax
  4027c5:	49 89 d0             	mov    %rdx,%r8
  4027c8:	48 89 c2             	mov    %rax,%rdx
  4027cb:	48 8b 4d 10          	mov    0x10(%rbp),%rcx
  4027cf:	e8 38 ff ff ff       	callq  40270c <bli_is_strictly_below_diag_n>
  4027d4:	84 c0                	test   %al,%al
  4027d6:	74 07                	je     4027df <bli_is_outside_diag_n+0x51>
  4027d8:	b8 01 00 00 00       	mov    $0x1,%eax
  4027dd:	eb 05                	jmp    4027e4 <bli_is_outside_diag_n+0x56>
  4027df:	b8 00 00 00 00       	mov    $0x0,%eax
  4027e4:	83 e0 01             	and    $0x1,%eax
  4027e7:	48 83 c4 20          	add    $0x20,%rsp
  4027eb:	5d                   	pop    %rbp
  4027ec:	c3                   	retq   

00000000004027ed <bli_is_stored_subpart_n>:
  4027ed:	55                   	push   %rbp
  4027ee:	48 89 e5             	mov    %rsp,%rbp
  4027f1:	48 83 ec 20          	sub    $0x20,%rsp
  4027f5:	48 89 4d 10          	mov    %rcx,0x10(%rbp)
  4027f9:	89 55 18             	mov    %edx,0x18(%rbp)
  4027fc:	4c 89 45 20          	mov    %r8,0x20(%rbp)
  402800:	4c 89 4d 28          	mov    %r9,0x28(%rbp)
  402804:	8b 45 18             	mov    0x18(%rbp),%eax
  402807:	89 c1                	mov    %eax,%ecx
  402809:	e8 e2 f4 ff ff       	callq  401cf0 <bli_is_upper>
  40280e:	84 c0                	test   %al,%al
  402810:	74 1b                	je     40282d <bli_is_stored_subpart_n+0x40>
  402812:	48 8b 55 28          	mov    0x28(%rbp),%rdx
  402816:	48 8b 45 20          	mov    0x20(%rbp),%rax
  40281a:	49 89 d0             	mov    %rdx,%r8
  40281d:	48 89 c2             	mov    %rax,%rdx
  402820:	48 8b 4d 10          	mov    0x10(%rbp),%rcx
  402824:	e8 c3 fe ff ff       	callq  4026ec <bli_is_strictly_above_diag_n>
  402829:	84 c0                	test   %al,%al
  40282b:	75 29                	jne    402856 <bli_is_stored_subpart_n+0x69>
  40282d:	8b 45 18             	mov    0x18(%rbp),%eax
  402830:	89 c1                	mov    %eax,%ecx
  402832:	e8 a6 f4 ff ff       	callq  401cdd <bli_is_lower>
  402837:	84 c0                	test   %al,%al
  402839:	74 22                	je     40285d <bli_is_stored_subpart_n+0x70>
  40283b:	48 8b 55 28          	mov    0x28(%rbp),%rdx
  40283f:	48 8b 45 20          	mov    0x20(%rbp),%rax
  402843:	49 89 d0             	mov    %rdx,%r8
  402846:	48 89 c2             	mov    %rax,%rdx
  402849:	48 8b 4d 10          	mov    0x10(%rbp),%rcx
  40284d:	e8 ba fe ff ff       	callq  40270c <bli_is_strictly_below_diag_n>
  402852:	84 c0                	test   %al,%al
  402854:	74 07                	je     40285d <bli_is_stored_subpart_n+0x70>
  402856:	b8 01 00 00 00       	mov    $0x1,%eax
  40285b:	eb 05                	jmp    402862 <bli_is_stored_subpart_n+0x75>
  40285d:	b8 00 00 00 00       	mov    $0x0,%eax
  402862:	83 e0 01             	and    $0x1,%eax
  402865:	48 83 c4 20          	add    $0x20,%rsp
  402869:	5d                   	pop    %rbp
  40286a:	c3                   	retq   

000000000040286b <bli_is_unstored_subpart_n>:
  40286b:	55                   	push   %rbp
  40286c:	48 89 e5             	mov    %rsp,%rbp
  40286f:	48 83 ec 20          	sub    $0x20,%rsp
  402873:	48 89 4d 10          	mov    %rcx,0x10(%rbp)
  402877:	89 55 18             	mov    %edx,0x18(%rbp)
  40287a:	4c 89 45 20          	mov    %r8,0x20(%rbp)
  40287e:	4c 89 4d 28          	mov    %r9,0x28(%rbp)
  402882:	8b 45 18             	mov    0x18(%rbp),%eax
  402885:	89 c1                	mov    %eax,%ecx
  402887:	e8 64 f4 ff ff       	callq  401cf0 <bli_is_upper>
  40288c:	84 c0                	test   %al,%al
  40288e:	74 1b                	je     4028ab <bli_is_unstored_subpart_n+0x40>
  402890:	48 8b 55 28          	mov    0x28(%rbp),%rdx
  402894:	48 8b 45 20          	mov    0x20(%rbp),%rax
  402898:	49 89 d0             	mov    %rdx,%r8
  40289b:	48 89 c2             	mov    %rax,%rdx
  40289e:	48 8b 4d 10          	mov    0x10(%rbp),%rcx
  4028a2:	e8 65 fe ff ff       	callq  40270c <bli_is_strictly_below_diag_n>
  4028a7:	84 c0                	test   %al,%al
  4028a9:	75 29                	jne    4028d4 <bli_is_unstored_subpart_n+0x69>
  4028ab:	8b 45 18             	mov    0x18(%rbp),%eax
  4028ae:	89 c1                	mov    %eax,%ecx
  4028b0:	e8 28 f4 ff ff       	callq  401cdd <bli_is_lower>
  4028b5:	84 c0                	test   %al,%al
  4028b7:	74 22                	je     4028db <bli_is_unstored_subpart_n+0x70>
  4028b9:	48 8b 55 28          	mov    0x28(%rbp),%rdx
  4028bd:	48 8b 45 20          	mov    0x20(%rbp),%rax
  4028c1:	49 89 d0             	mov    %rdx,%r8
  4028c4:	48 89 c2             	mov    %rax,%rdx
  4028c7:	48 8b 4d 10          	mov    0x10(%rbp),%rcx
  4028cb:	e8 1c fe ff ff       	callq  4026ec <bli_is_strictly_above_diag_n>
  4028d0:	84 c0                	test   %al,%al
  4028d2:	74 07                	je     4028db <bli_is_unstored_subpart_n+0x70>
  4028d4:	b8 01 00 00 00       	mov    $0x1,%eax
  4028d9:	eb 05                	jmp    4028e0 <bli_is_unstored_subpart_n+0x75>
  4028db:	b8 00 00 00 00       	mov    $0x0,%eax
  4028e0:	83 e0 01             	and    $0x1,%eax
  4028e3:	48 83 c4 20          	add    $0x20,%rsp
  4028e7:	5d                   	pop    %rbp
  4028e8:	c3                   	retq   

00000000004028e9 <bli_prune_unstored_region_top_l>:
  4028e9:	55                   	push   %rbp
  4028ea:	48 89 e5             	mov    %rsp,%rbp
  4028ed:	48 89 4d 10          	mov    %rcx,0x10(%rbp)
  4028f1:	48 89 55 18          	mov    %rdx,0x18(%rbp)
  4028f5:	4c 89 45 20          	mov    %r8,0x20(%rbp)
  4028f9:	4c 89 4d 28          	mov    %r9,0x28(%rbp)
  4028fd:	48 8b 45 28          	mov    0x28(%rbp),%rax
  402901:	48 c7 00 00 00 00 00 	movq   $0x0,(%rax)
  402908:	48 8b 45 10          	mov    0x10(%rbp),%rax
  40290c:	48 8b 00             	mov    (%rax),%rax
  40290f:	48 85 c0             	test   %rax,%rax
  402912:	79 37                	jns    40294b <bli_prune_unstored_region_top_l+0x62>
  402914:	48 8b 45 18          	mov    0x18(%rbp),%rax
  402918:	48 8b 10             	mov    (%rax),%rdx
  40291b:	48 8b 45 10          	mov    0x10(%rbp),%rax
  40291f:	48 8b 00             	mov    (%rax),%rax
  402922:	48 01 c2             	add    %rax,%rdx
  402925:	48 8b 45 18          	mov    0x18(%rbp),%rax
  402929:	48 89 10             	mov    %rdx,(%rax)
  40292c:	48 8b 45 10          	mov    0x10(%rbp),%rax
  402930:	48 8b 00             	mov    (%rax),%rax
  402933:	48 f7 d8             	neg    %rax
  402936:	48 89 c2             	mov    %rax,%rdx
  402939:	48 8b 45 28          	mov    0x28(%rbp),%rax
  40293d:	48 89 10             	mov    %rdx,(%rax)
  402940:	48 8b 45 10          	mov    0x10(%rbp),%rax
  402944:	48 c7 00 00 00 00 00 	movq   $0x0,(%rax)
  40294b:	90                   	nop
  40294c:	5d                   	pop    %rbp
  40294d:	c3                   	retq   

000000000040294e <bli_prune_unstored_region_right_l>:
  40294e:	55                   	push   %rbp
  40294f:	48 89 e5             	mov    %rsp,%rbp
  402952:	48 89 4d 10          	mov    %rcx,0x10(%rbp)
  402956:	48 89 55 18          	mov    %rdx,0x18(%rbp)
  40295a:	4c 89 45 20          	mov    %r8,0x20(%rbp)
  40295e:	4c 89 4d 28          	mov    %r9,0x28(%rbp)
  402962:	48 8b 45 28          	mov    0x28(%rbp),%rax
  402966:	48 c7 00 00 00 00 00 	movq   $0x0,(%rax)
  40296d:	48 8b 45 20          	mov    0x20(%rbp),%rax
  402971:	48 8b 10             	mov    (%rax),%rdx
  402974:	48 8b 45 10          	mov    0x10(%rbp),%rax
  402978:	48 8b 08             	mov    (%rax),%rcx
  40297b:	48 8b 45 18          	mov    0x18(%rbp),%rax
  40297f:	48 8b 00             	mov    (%rax),%rax
  402982:	48 01 c8             	add    %rcx,%rax
  402985:	48 39 c2             	cmp    %rax,%rdx
  402988:	7e 18                	jle    4029a2 <bli_prune_unstored_region_right_l+0x54>
  40298a:	48 8b 45 10          	mov    0x10(%rbp),%rax
  40298e:	48 8b 10             	mov    (%rax),%rdx
  402991:	48 8b 45 18          	mov    0x18(%rbp),%rax
  402995:	48 8b 00             	mov    (%rax),%rax
  402998:	48 01 c2             	add    %rax,%rdx
  40299b:	48 8b 45 20          	mov    0x20(%rbp),%rax
  40299f:	48 89 10             	mov    %rdx,(%rax)
  4029a2:	90                   	nop
  4029a3:	5d                   	pop    %rbp
  4029a4:	c3                   	retq   

00000000004029a5 <bli_prune_unstored_region_left_u>:
  4029a5:	55                   	push   %rbp
  4029a6:	48 89 e5             	mov    %rsp,%rbp
  4029a9:	48 89 4d 10          	mov    %rcx,0x10(%rbp)
  4029ad:	48 89 55 18          	mov    %rdx,0x18(%rbp)
  4029b1:	4c 89 45 20          	mov    %r8,0x20(%rbp)
  4029b5:	4c 89 4d 28          	mov    %r9,0x28(%rbp)
  4029b9:	48 8b 45 28          	mov    0x28(%rbp),%rax
  4029bd:	48 c7 00 00 00 00 00 	movq   $0x0,(%rax)
  4029c4:	48 8b 45 10          	mov    0x10(%rbp),%rax
  4029c8:	48 8b 00             	mov    (%rax),%rax
  4029cb:	48 85 c0             	test   %rax,%rax
  4029ce:	7e 31                	jle    402a01 <bli_prune_unstored_region_left_u+0x5c>
  4029d0:	48 8b 45 20          	mov    0x20(%rbp),%rax
  4029d4:	48 8b 10             	mov    (%rax),%rdx
  4029d7:	48 8b 45 10          	mov    0x10(%rbp),%rax
  4029db:	48 8b 00             	mov    (%rax),%rax
  4029de:	48 29 c2             	sub    %rax,%rdx
  4029e1:	48 8b 45 20          	mov    0x20(%rbp),%rax
  4029e5:	48 89 10             	mov    %rdx,(%rax)
  4029e8:	48 8b 45 10          	mov    0x10(%rbp),%rax
  4029ec:	48 8b 10             	mov    (%rax),%rdx
  4029ef:	48 8b 45 28          	mov    0x28(%rbp),%rax
  4029f3:	48 89 10             	mov    %rdx,(%rax)
  4029f6:	48 8b 45 10          	mov    0x10(%rbp),%rax
  4029fa:	48 c7 00 00 00 00 00 	movq   $0x0,(%rax)
  402a01:	90                   	nop
  402a02:	5d                   	pop    %rbp
  402a03:	c3                   	retq   

0000000000402a04 <bli_prune_unstored_region_bottom_u>:
  402a04:	55                   	push   %rbp
  402a05:	48 89 e5             	mov    %rsp,%rbp
  402a08:	48 89 4d 10          	mov    %rcx,0x10(%rbp)
  402a0c:	48 89 55 18          	mov    %rdx,0x18(%rbp)
  402a10:	4c 89 45 20          	mov    %r8,0x20(%rbp)
  402a14:	4c 89 4d 28          	mov    %r9,0x28(%rbp)
  402a18:	48 8b 45 28          	mov    0x28(%rbp),%rax
  402a1c:	48 c7 00 00 00 00 00 	movq   $0x0,(%rax)
  402a23:	48 8b 45 18          	mov    0x18(%rbp),%rax
  402a27:	48 8b 10             	mov    (%rax),%rdx
  402a2a:	48 8b 45 20          	mov    0x20(%rbp),%rax
  402a2e:	48 8b 08             	mov    (%rax),%rcx
  402a31:	48 8b 45 10          	mov    0x10(%rbp),%rax
  402a35:	48 8b 00             	mov    (%rax),%rax
  402a38:	48 29 c1             	sub    %rax,%rcx
  402a3b:	48 89 c8             	mov    %rcx,%rax
  402a3e:	48 39 c2             	cmp    %rax,%rdx
  402a41:	7e 18                	jle    402a5b <bli_prune_unstored_region_bottom_u+0x57>
  402a43:	48 8b 45 20          	mov    0x20(%rbp),%rax
  402a47:	48 8b 10             	mov    (%rax),%rdx
  402a4a:	48 8b 45 10          	mov    0x10(%rbp),%rax
  402a4e:	48 8b 00             	mov    (%rax),%rax
  402a51:	48 29 c2             	sub    %rax,%rdx
  402a54:	48 8b 45 18          	mov    0x18(%rbp),%rax
  402a58:	48 89 10             	mov    %rdx,(%rax)
  402a5b:	90                   	nop
  402a5c:	5d                   	pop    %rbp
  402a5d:	c3                   	retq   

0000000000402a5e <bli_rotate180_trapezoid>:
  402a5e:	55                   	push   %rbp
  402a5f:	48 89 e5             	mov    %rsp,%rbp
  402a62:	48 83 ec 20          	sub    $0x20,%rsp
  402a66:	48 89 4d 10          	mov    %rcx,0x10(%rbp)
  402a6a:	48 89 55 18          	mov    %rdx,0x18(%rbp)
  402a6e:	4c 89 45 20          	mov    %r8,0x20(%rbp)
  402a72:	4c 89 4d 28          	mov    %r9,0x28(%rbp)
  402a76:	48 8b 45 28          	mov    0x28(%rbp),%rax
  402a7a:	48 8b 10             	mov    (%rax),%rdx
  402a7d:	48 8b 45 10          	mov    0x10(%rbp),%rax
  402a81:	48 8b 00             	mov    (%rax),%rax
  402a84:	48 29 c2             	sub    %rax,%rdx
  402a87:	48 8b 45 20          	mov    0x20(%rbp),%rax
  402a8b:	48 8b 00             	mov    (%rax),%rax
  402a8e:	48 29 c2             	sub    %rax,%rdx
  402a91:	48 8b 45 10          	mov    0x10(%rbp),%rax
  402a95:	48 89 10             	mov    %rdx,(%rax)
  402a98:	48 8b 45 18          	mov    0x18(%rbp),%rax
  402a9c:	48 89 c1             	mov    %rax,%rcx
  402a9f:	e8 de f2 ff ff       	callq  401d82 <bli_toggle_uplo>
  402aa4:	90                   	nop
  402aa5:	48 83 c4 20          	add    $0x20,%rsp
  402aa9:	5d                   	pop    %rbp
  402aaa:	c3                   	retq   

0000000000402aab <bli_reflect_about_diag>:
  402aab:	55                   	push   %rbp
  402aac:	48 89 e5             	mov    %rsp,%rbp
  402aaf:	48 83 ec 20          	sub    $0x20,%rsp
  402ab3:	48 89 4d 10          	mov    %rcx,0x10(%rbp)
  402ab7:	48 89 55 18          	mov    %rdx,0x18(%rbp)
  402abb:	4c 89 45 20          	mov    %r8,0x20(%rbp)
  402abf:	4c 89 4d 28          	mov    %r9,0x28(%rbp)
  402ac3:	48 8b 55 28          	mov    0x28(%rbp),%rdx
  402ac7:	48 8b 45 20          	mov    0x20(%rbp),%rax
  402acb:	48 89 c1             	mov    %rax,%rcx
  402ace:	e8 c6 ed ff ff       	callq  401899 <bli_swap_dims>
  402ad3:	48 8b 4d 10          	mov    0x10(%rbp),%rcx
  402ad7:	e8 1c f9 ff ff       	callq  4023f8 <bli_negate_diag_offset>
  402adc:	48 8b 45 18          	mov    0x18(%rbp),%rax
  402ae0:	48 89 c1             	mov    %rax,%rcx
  402ae3:	e8 9a f2 ff ff       	callq  401d82 <bli_toggle_uplo>
  402ae8:	90                   	nop
  402ae9:	48 83 c4 20          	add    $0x20,%rsp
  402aed:	5d                   	pop    %rbp
  402aee:	c3                   	retq   

0000000000402aef <bli_reverse_index_direction>:
  402aef:	55                   	push   %rbp
  402af0:	48 89 e5             	mov    %rsp,%rbp
  402af3:	48 83 ec 10          	sub    $0x10,%rsp
  402af7:	48 89 4d 10          	mov    %rcx,0x10(%rbp)
  402afb:	48 89 55 18          	mov    %rdx,0x18(%rbp)
  402aff:	4c 89 45 20          	mov    %r8,0x20(%rbp)
  402b03:	48 8b 45 18          	mov    0x18(%rbp),%rax
  402b07:	48 8b 00             	mov    (%rax),%rax
  402b0a:	48 8b 55 10          	mov    0x10(%rbp),%rdx
  402b0e:	48 29 c2             	sub    %rax,%rdx
  402b11:	48 89 d0             	mov    %rdx,%rax
  402b14:	48 89 45 f8          	mov    %rax,-0x8(%rbp)
  402b18:	48 8b 45 20          	mov    0x20(%rbp),%rax
  402b1c:	48 8b 00             	mov    (%rax),%rax
  402b1f:	48 8b 55 10          	mov    0x10(%rbp),%rdx
  402b23:	48 29 c2             	sub    %rax,%rdx
  402b26:	48 89 d0             	mov    %rdx,%rax
  402b29:	48 89 45 f0          	mov    %rax,-0x10(%rbp)
  402b2d:	48 8b 45 18          	mov    0x18(%rbp),%rax
  402b31:	48 8b 55 f0          	mov    -0x10(%rbp),%rdx
  402b35:	48 89 10             	mov    %rdx,(%rax)
  402b38:	48 8b 45 20          	mov    0x20(%rbp),%rax
  402b3c:	48 8b 55 f8          	mov    -0x8(%rbp),%rdx
  402b40:	48 89 10             	mov    %rdx,(%rax)
  402b43:	90                   	nop
  402b44:	48 83 c4 10          	add    $0x10,%rsp
  402b48:	5d                   	pop    %rbp
  402b49:	c3                   	retq   

0000000000402b4a <bli_is_m_dim>:
  402b4a:	55                   	push   %rbp
  402b4b:	48 89 e5             	mov    %rsp,%rbp
  402b4e:	89 4d 10             	mov    %ecx,0x10(%rbp)
  402b51:	83 7d 10 00          	cmpl   $0x0,0x10(%rbp)
  402b55:	0f 94 c0             	sete   %al
  402b58:	5d                   	pop    %rbp
  402b59:	c3                   	retq   

0000000000402b5a <bli_is_n_dim>:
  402b5a:	55                   	push   %rbp
  402b5b:	48 89 e5             	mov    %rsp,%rbp
  402b5e:	89 4d 10             	mov    %ecx,0x10(%rbp)
  402b61:	83 7d 10 01          	cmpl   $0x1,0x10(%rbp)
  402b65:	0f 94 c0             	sete   %al
  402b68:	5d                   	pop    %rbp
  402b69:	c3                   	retq   

0000000000402b6a <bli_dim_toggled>:
  402b6a:	55                   	push   %rbp
  402b6b:	48 89 e5             	mov    %rsp,%rbp
  402b6e:	89 4d 10             	mov    %ecx,0x10(%rbp)
  402b71:	83 7d 10 00          	cmpl   $0x0,0x10(%rbp)
  402b75:	75 07                	jne    402b7e <bli_dim_toggled+0x14>
  402b77:	b8 01 00 00 00       	mov    $0x1,%eax
  402b7c:	eb 05                	jmp    402b83 <bli_dim_toggled+0x19>
  402b7e:	b8 00 00 00 00       	mov    $0x0,%eax
  402b83:	5d                   	pop    %rbp
  402b84:	c3                   	retq   

0000000000402b85 <bli_toggle_dim>:
  402b85:	55                   	push   %rbp
  402b86:	48 89 e5             	mov    %rsp,%rbp
  402b89:	48 83 ec 20          	sub    $0x20,%rsp
  402b8d:	48 89 4d 10          	mov    %rcx,0x10(%rbp)
  402b91:	48 8b 45 10          	mov    0x10(%rbp),%rax
  402b95:	8b 00                	mov    (%rax),%eax
  402b97:	89 c1                	mov    %eax,%ecx
  402b99:	e8 cc ff ff ff       	callq  402b6a <bli_dim_toggled>
  402b9e:	89 c2                	mov    %eax,%edx
  402ba0:	48 8b 45 10          	mov    0x10(%rbp),%rax
  402ba4:	89 10                	mov    %edx,(%rax)
  402ba6:	90                   	nop
  402ba7:	48 83 c4 20          	add    $0x20,%rsp
  402bab:	5d                   	pop    %rbp
  402bac:	c3                   	retq   

0000000000402bad <bli_stor3_from_strides>:
  402bad:	55                   	push   %rbp
  402bae:	48 89 e5             	mov    %rsp,%rbp
  402bb1:	48 83 ec 30          	sub    $0x30,%rsp
  402bb5:	48 89 4d 10          	mov    %rcx,0x10(%rbp)
  402bb9:	48 89 55 18          	mov    %rdx,0x18(%rbp)
  402bbd:	4c 89 45 20          	mov    %r8,0x20(%rbp)
  402bc1:	4c 89 4d 28          	mov    %r9,0x28(%rbp)
  402bc5:	48 8b 45 18          	mov    0x18(%rbp),%rax
  402bc9:	48 89 c2             	mov    %rax,%rdx
  402bcc:	48 8b 4d 10          	mov    0x10(%rbp),%rcx
  402bd0:	e8 6f f6 ff ff       	callq  402244 <bli_is_gen_stored>
  402bd5:	84 c0                	test   %al,%al
  402bd7:	75 28                	jne    402c01 <bli_stor3_from_strides+0x54>
  402bd9:	48 8b 55 28          	mov    0x28(%rbp),%rdx
  402bdd:	48 8b 45 20          	mov    0x20(%rbp),%rax
  402be1:	48 89 c1             	mov    %rax,%rcx
  402be4:	e8 5b f6 ff ff       	callq  402244 <bli_is_gen_stored>
  402be9:	84 c0                	test   %al,%al
  402beb:	75 14                	jne    402c01 <bli_stor3_from_strides+0x54>
  402bed:	48 8b 55 38          	mov    0x38(%rbp),%rdx
  402bf1:	48 8b 45 30          	mov    0x30(%rbp),%rax
  402bf5:	48 89 c1             	mov    %rax,%rcx
  402bf8:	e8 47 f6 ff ff       	callq  402244 <bli_is_gen_stored>
  402bfd:	84 c0                	test   %al,%al
  402bff:	74 07                	je     402c08 <bli_stor3_from_strides+0x5b>
  402c01:	b8 08 00 00 00       	mov    $0x8,%eax
  402c06:	eb 4f                	jmp    402c57 <bli_stor3_from_strides+0xaa>
  402c08:	48 8b 45 18          	mov    0x18(%rbp),%rax
  402c0c:	48 89 c2             	mov    %rax,%rdx
  402c0f:	48 8b 4d 10          	mov    0x10(%rbp),%rcx
  402c13:	e8 93 f5 ff ff       	callq  4021ab <bli_is_col_stored>
  402c18:	88 45 ff             	mov    %al,-0x1(%rbp)
  402c1b:	48 8b 55 28          	mov    0x28(%rbp),%rdx
  402c1f:	48 8b 45 20          	mov    0x20(%rbp),%rax
  402c23:	48 89 c1             	mov    %rax,%rcx
  402c26:	e8 80 f5 ff ff       	callq  4021ab <bli_is_col_stored>
  402c2b:	88 45 fe             	mov    %al,-0x2(%rbp)
  402c2e:	48 8b 55 38          	mov    0x38(%rbp),%rdx
  402c32:	48 8b 45 30          	mov    0x30(%rbp),%rax
  402c36:	48 89 c1             	mov    %rax,%rcx
  402c39:	e8 6d f5 ff ff       	callq  4021ab <bli_is_col_stored>
  402c3e:	88 45 fd             	mov    %al,-0x3(%rbp)
  402c41:	0f b6 45 ff          	movzbl -0x1(%rbp),%eax
  402c45:	8d 14 00             	lea    (%rax,%rax,1),%edx
  402c48:	0f b6 45 fe          	movzbl -0x2(%rbp),%eax
  402c4c:	01 d0                	add    %edx,%eax
  402c4e:	8d 14 00             	lea    (%rax,%rax,1),%edx
  402c51:	0f b6 45 fd          	movzbl -0x3(%rbp),%eax
  402c55:	01 d0                	add    %edx,%eax
  402c57:	48 83 c4 30          	add    $0x30,%rsp
  402c5b:	5d                   	pop    %rbp
  402c5c:	c3                   	retq   

0000000000402c5d <bli_stor3_trans>:
  402c5d:	55                   	push   %rbp
  402c5e:	48 89 e5             	mov    %rsp,%rbp
  402c61:	48 83 ec 30          	sub    $0x30,%rsp
  402c65:	89 4d 10             	mov    %ecx,0x10(%rbp)
  402c68:	48 c7 45 d0 00 00 00 	movq   $0x0,-0x30(%rbp)
  402c6f:	00 
  402c70:	48 c7 45 d8 00 00 00 	movq   $0x0,-0x28(%rbp)
  402c77:	00 
  402c78:	48 c7 45 e0 00 00 00 	movq   $0x0,-0x20(%rbp)
  402c7f:	00 
  402c80:	48 c7 45 e8 00 00 00 	movq   $0x0,-0x18(%rbp)
  402c87:	00 
  402c88:	c7 45 f0 00 00 00 00 	movl   $0x0,-0x10(%rbp)
  402c8f:	c7 45 d0 07 00 00 00 	movl   $0x7,-0x30(%rbp)
  402c96:	c7 45 d4 05 00 00 00 	movl   $0x5,-0x2c(%rbp)
  402c9d:	c7 45 d8 06 00 00 00 	movl   $0x6,-0x28(%rbp)
  402ca4:	c7 45 dc 04 00 00 00 	movl   $0x4,-0x24(%rbp)
  402cab:	c7 45 e0 03 00 00 00 	movl   $0x3,-0x20(%rbp)
  402cb2:	c7 45 e4 01 00 00 00 	movl   $0x1,-0x1c(%rbp)
  402cb9:	c7 45 e8 02 00 00 00 	movl   $0x2,-0x18(%rbp)
  402cc0:	8b 45 10             	mov    0x10(%rbp),%eax
  402cc3:	8b 44 85 d0          	mov    -0x30(%rbp,%rax,4),%eax
  402cc7:	48 83 c4 30          	add    $0x30,%rsp
  402ccb:	5d                   	pop    %rbp
  402ccc:	c3                   	retq   

0000000000402ccd <bli_stor3_transa>:
  402ccd:	55                   	push   %rbp
  402cce:	48 89 e5             	mov    %rsp,%rbp
  402cd1:	89 4d 10             	mov    %ecx,0x10(%rbp)
  402cd4:	8b 45 10             	mov    0x10(%rbp),%eax
  402cd7:	83 f0 01             	xor    $0x1,%eax
  402cda:	5d                   	pop    %rbp
  402cdb:	c3                   	retq   

0000000000402cdc <bli_stor3_transb>:
  402cdc:	55                   	push   %rbp
  402cdd:	48 89 e5             	mov    %rsp,%rbp
  402ce0:	89 4d 10             	mov    %ecx,0x10(%rbp)
  402ce3:	8b 45 10             	mov    0x10(%rbp),%eax
  402ce6:	83 f0 02             	xor    $0x2,%eax
  402ce9:	5d                   	pop    %rbp
  402cea:	c3                   	retq   

0000000000402ceb <bli_is_edge_f>:
  402ceb:	55                   	push   %rbp
  402cec:	48 89 e5             	mov    %rsp,%rbp
  402cef:	48 89 4d 10          	mov    %rcx,0x10(%rbp)
  402cf3:	48 89 55 18          	mov    %rdx,0x18(%rbp)
  402cf7:	4c 89 45 20          	mov    %r8,0x20(%rbp)
  402cfb:	48 8b 45 18          	mov    0x18(%rbp),%rax
  402cff:	48 83 e8 01          	sub    $0x1,%rax
  402d03:	48 39 45 10          	cmp    %rax,0x10(%rbp)
  402d07:	75 0e                	jne    402d17 <bli_is_edge_f+0x2c>
  402d09:	48 83 7d 20 00       	cmpq   $0x0,0x20(%rbp)
  402d0e:	74 07                	je     402d17 <bli_is_edge_f+0x2c>
  402d10:	b8 01 00 00 00       	mov    $0x1,%eax
  402d15:	eb 05                	jmp    402d1c <bli_is_edge_f+0x31>
  402d17:	b8 00 00 00 00       	mov    $0x0,%eax
  402d1c:	83 e0 01             	and    $0x1,%eax
  402d1f:	5d                   	pop    %rbp
  402d20:	c3                   	retq   

0000000000402d21 <bli_is_not_edge_f>:
  402d21:	55                   	push   %rbp
  402d22:	48 89 e5             	mov    %rsp,%rbp
  402d25:	48 89 4d 10          	mov    %rcx,0x10(%rbp)
  402d29:	48 89 55 18          	mov    %rdx,0x18(%rbp)
  402d2d:	4c 89 45 20          	mov    %r8,0x20(%rbp)
  402d31:	48 8b 45 18          	mov    0x18(%rbp),%rax
  402d35:	48 83 e8 01          	sub    $0x1,%rax
  402d39:	48 39 45 10          	cmp    %rax,0x10(%rbp)
  402d3d:	75 07                	jne    402d46 <bli_is_not_edge_f+0x25>
  402d3f:	48 83 7d 20 00       	cmpq   $0x0,0x20(%rbp)
  402d44:	75 07                	jne    402d4d <bli_is_not_edge_f+0x2c>
  402d46:	b8 01 00 00 00       	mov    $0x1,%eax
  402d4b:	eb 05                	jmp    402d52 <bli_is_not_edge_f+0x31>
  402d4d:	b8 00 00 00 00       	mov    $0x0,%eax
  402d52:	83 e0 01             	and    $0x1,%eax
  402d55:	5d                   	pop    %rbp
  402d56:	c3                   	retq   

0000000000402d57 <bli_is_edge_b>:
  402d57:	55                   	push   %rbp
  402d58:	48 89 e5             	mov    %rsp,%rbp
  402d5b:	48 89 4d 10          	mov    %rcx,0x10(%rbp)
  402d5f:	48 89 55 18          	mov    %rdx,0x18(%rbp)
  402d63:	4c 89 45 20          	mov    %r8,0x20(%rbp)
  402d67:	48 83 7d 10 00       	cmpq   $0x0,0x10(%rbp)
  402d6c:	75 0e                	jne    402d7c <bli_is_edge_b+0x25>
  402d6e:	48 83 7d 20 00       	cmpq   $0x0,0x20(%rbp)
  402d73:	74 07                	je     402d7c <bli_is_edge_b+0x25>
  402d75:	b8 01 00 00 00       	mov    $0x1,%eax
  402d7a:	eb 05                	jmp    402d81 <bli_is_edge_b+0x2a>
  402d7c:	b8 00 00 00 00       	mov    $0x0,%eax
  402d81:	83 e0 01             	and    $0x1,%eax
  402d84:	5d                   	pop    %rbp
  402d85:	c3                   	retq   

0000000000402d86 <bli_is_not_edge_b>:
  402d86:	55                   	push   %rbp
  402d87:	48 89 e5             	mov    %rsp,%rbp
  402d8a:	48 89 4d 10          	mov    %rcx,0x10(%rbp)
  402d8e:	48 89 55 18          	mov    %rdx,0x18(%rbp)
  402d92:	4c 89 45 20          	mov    %r8,0x20(%rbp)
  402d96:	48 83 7d 10 00       	cmpq   $0x0,0x10(%rbp)
  402d9b:	75 07                	jne    402da4 <bli_is_not_edge_b+0x1e>
  402d9d:	48 83 7d 20 00       	cmpq   $0x0,0x20(%rbp)
  402da2:	75 07                	jne    402dab <bli_is_not_edge_b+0x25>
  402da4:	b8 01 00 00 00       	mov    $0x1,%eax
  402da9:	eb 05                	jmp    402db0 <bli_is_not_edge_b+0x2a>
  402dab:	b8 00 00 00 00       	mov    $0x0,%eax
  402db0:	83 e0 01             	and    $0x1,%eax
  402db3:	5d                   	pop    %rbp
  402db4:	c3                   	retq   

0000000000402db5 <bli_is_last_iter_sl>:
  402db5:	55                   	push   %rbp
  402db6:	48 89 e5             	mov    %rsp,%rbp
  402db9:	48 89 4d 10          	mov    %rcx,0x10(%rbp)
  402dbd:	48 89 55 18          	mov    %rdx,0x18(%rbp)
  402dc1:	4c 89 45 20          	mov    %r8,0x20(%rbp)
  402dc5:	4c 89 4d 28          	mov    %r9,0x28(%rbp)
  402dc9:	48 8b 45 18          	mov    0x18(%rbp),%rax
  402dcd:	48 83 e8 01          	sub    $0x1,%rax
  402dd1:	48 39 45 10          	cmp    %rax,0x10(%rbp)
  402dd5:	0f 94 c0             	sete   %al
  402dd8:	5d                   	pop    %rbp
  402dd9:	c3                   	retq   

0000000000402dda <bli_is_last_iter_rr>:
  402dda:	55                   	push   %rbp
  402ddb:	48 89 e5             	mov    %rsp,%rbp
  402dde:	48 89 4d 10          	mov    %rcx,0x10(%rbp)
  402de2:	48 89 55 18          	mov    %rdx,0x18(%rbp)
  402de6:	4c 89 45 20          	mov    %r8,0x20(%rbp)
  402dea:	4c 89 4d 28          	mov    %r9,0x28(%rbp)
  402dee:	48 8b 45 18          	mov    0x18(%rbp),%rax
  402df2:	48 8d 48 ff          	lea    -0x1(%rax),%rcx
  402df6:	48 8b 45 18          	mov    0x18(%rbp),%rax
  402dfa:	48 2b 45 20          	sub    0x20(%rbp),%rax
  402dfe:	48 83 e8 01          	sub    $0x1,%rax
  402e02:	48 99                	cqto   
  402e04:	48 f7 7d 28          	idivq  0x28(%rbp)
  402e08:	48 89 d0             	mov    %rdx,%rax
  402e0b:	48 29 c1             	sub    %rax,%rcx
  402e0e:	48 89 c8             	mov    %rcx,%rax
  402e11:	48 39 45 10          	cmp    %rax,0x10(%rbp)
  402e15:	0f 94 c0             	sete   %al
  402e18:	5d                   	pop    %rbp
  402e19:	c3                   	retq   

0000000000402e1a <bli_is_last_iter>:
  402e1a:	55                   	push   %rbp
  402e1b:	48 89 e5             	mov    %rsp,%rbp
  402e1e:	48 83 ec 20          	sub    $0x20,%rsp
  402e22:	48 89 4d 10          	mov    %rcx,0x10(%rbp)
  402e26:	48 89 55 18          	mov    %rdx,0x18(%rbp)
  402e2a:	4c 89 45 20          	mov    %r8,0x20(%rbp)
  402e2e:	4c 89 4d 28          	mov    %r9,0x28(%rbp)
  402e32:	48 8b 4d 28          	mov    0x28(%rbp),%rcx
  402e36:	48 8b 55 20          	mov    0x20(%rbp),%rdx
  402e3a:	48 8b 45 18          	mov    0x18(%rbp),%rax
  402e3e:	49 89 c9             	mov    %rcx,%r9
  402e41:	49 89 d0             	mov    %rdx,%r8
  402e44:	48 89 c2             	mov    %rax,%rdx
  402e47:	48 8b 4d 10          	mov    0x10(%rbp),%rcx
  402e4b:	e8 65 ff ff ff       	callq  402db5 <bli_is_last_iter_sl>
  402e50:	48 83 c4 20          	add    $0x20,%rsp
  402e54:	5d                   	pop    %rbp
  402e55:	c3                   	retq   

0000000000402e56 <bli_packbuf_index>:
  402e56:	55                   	push   %rbp
  402e57:	48 89 e5             	mov    %rsp,%rbp
  402e5a:	89 4d 10             	mov    %ecx,0x10(%rbp)
  402e5d:	8b 45 10             	mov    0x10(%rbp),%eax
  402e60:	c1 e8 19             	shr    $0x19,%eax
  402e63:	89 c0                	mov    %eax,%eax
  402e65:	83 e0 03             	and    $0x3,%eax
  402e68:	5d                   	pop    %rbp
  402e69:	c3                   	retq   

0000000000402e6a <bli_is_packed>:
  402e6a:	55                   	push   %rbp
  402e6b:	48 89 e5             	mov    %rsp,%rbp
  402e6e:	89 4d 10             	mov    %ecx,0x10(%rbp)
  402e71:	8b 45 10             	mov    0x10(%rbp),%eax
  402e74:	25 00 00 40 00       	and    $0x400000,%eax
  402e79:	85 c0                	test   %eax,%eax
  402e7b:	0f 95 c0             	setne  %al
  402e7e:	5d                   	pop    %rbp
  402e7f:	c3                   	retq   

0000000000402e80 <bli_is_row_packed>:
  402e80:	55                   	push   %rbp
  402e81:	48 89 e5             	mov    %rsp,%rbp
  402e84:	89 4d 10             	mov    %ecx,0x10(%rbp)
  402e87:	8b 45 10             	mov    0x10(%rbp),%eax
  402e8a:	25 00 00 01 00       	and    $0x10000,%eax
  402e8f:	85 c0                	test   %eax,%eax
  402e91:	0f 94 c0             	sete   %al
  402e94:	5d                   	pop    %rbp
  402e95:	c3                   	retq   

0000000000402e96 <bli_is_col_packed>:
  402e96:	55                   	push   %rbp
  402e97:	48 89 e5             	mov    %rsp,%rbp
  402e9a:	89 4d 10             	mov    %ecx,0x10(%rbp)
  402e9d:	8b 45 10             	mov    0x10(%rbp),%eax
  402ea0:	25 00 00 01 00       	and    $0x10000,%eax
  402ea5:	85 c0                	test   %eax,%eax
  402ea7:	0f 95 c0             	setne  %al
  402eaa:	5d                   	pop    %rbp
  402eab:	c3                   	retq   

0000000000402eac <bli_is_panel_packed>:
  402eac:	55                   	push   %rbp
  402ead:	48 89 e5             	mov    %rsp,%rbp
  402eb0:	89 4d 10             	mov    %ecx,0x10(%rbp)
  402eb3:	8b 45 10             	mov    0x10(%rbp),%eax
  402eb6:	25 00 00 02 00       	and    $0x20000,%eax
  402ebb:	85 c0                	test   %eax,%eax
  402ebd:	0f 95 c0             	setne  %al
  402ec0:	5d                   	pop    %rbp
  402ec1:	c3                   	retq   

0000000000402ec2 <bli_is_4mi_packed>:
  402ec2:	55                   	push   %rbp
  402ec3:	48 89 e5             	mov    %rsp,%rbp
  402ec6:	89 4d 10             	mov    %ecx,0x10(%rbp)
  402ec9:	8b 45 10             	mov    0x10(%rbp),%eax
  402ecc:	25 00 00 3c 00       	and    $0x3c0000,%eax
  402ed1:	3d 00 00 04 00       	cmp    $0x40000,%eax
  402ed6:	0f 94 c0             	sete   %al
  402ed9:	5d                   	pop    %rbp
  402eda:	c3                   	retq   

0000000000402edb <bli_is_3mi_packed>:
  402edb:	55                   	push   %rbp
  402edc:	48 89 e5             	mov    %rsp,%rbp
  402edf:	89 4d 10             	mov    %ecx,0x10(%rbp)
  402ee2:	8b 45 10             	mov    0x10(%rbp),%eax
  402ee5:	25 00 00 3c 00       	and    $0x3c0000,%eax
  402eea:	3d 00 00 08 00       	cmp    $0x80000,%eax
  402eef:	0f 94 c0             	sete   %al
  402ef2:	5d                   	pop    %rbp
  402ef3:	c3                   	retq   

0000000000402ef4 <bli_is_3ms_packed>:
  402ef4:	55                   	push   %rbp
  402ef5:	48 89 e5             	mov    %rsp,%rbp
  402ef8:	89 4d 10             	mov    %ecx,0x10(%rbp)
  402efb:	8b 45 10             	mov    0x10(%rbp),%eax
  402efe:	25 00 00 3c 00       	and    $0x3c0000,%eax
  402f03:	3d 00 00 10 00       	cmp    $0x100000,%eax
  402f08:	0f 94 c0             	sete   %al
  402f0b:	5d                   	pop    %rbp
  402f0c:	c3                   	retq   

0000000000402f0d <bli_is_ro_packed>:
  402f0d:	55                   	push   %rbp
  402f0e:	48 89 e5             	mov    %rsp,%rbp
  402f11:	89 4d 10             	mov    %ecx,0x10(%rbp)
  402f14:	8b 45 10             	mov    0x10(%rbp),%eax
  402f17:	25 00 00 3c 00       	and    $0x3c0000,%eax
  402f1c:	3d 00 00 14 00       	cmp    $0x140000,%eax
  402f21:	0f 94 c0             	sete   %al
  402f24:	5d                   	pop    %rbp
  402f25:	c3                   	retq   

0000000000402f26 <bli_is_io_packed>:
  402f26:	55                   	push   %rbp
  402f27:	48 89 e5             	mov    %rsp,%rbp
  402f2a:	89 4d 10             	mov    %ecx,0x10(%rbp)
  402f2d:	8b 45 10             	mov    0x10(%rbp),%eax
  402f30:	25 00 00 3c 00       	and    $0x3c0000,%eax
  402f35:	3d 00 00 18 00       	cmp    $0x180000,%eax
  402f3a:	0f 94 c0             	sete   %al
  402f3d:	5d                   	pop    %rbp
  402f3e:	c3                   	retq   

0000000000402f3f <bli_is_rpi_packed>:
  402f3f:	55                   	push   %rbp
  402f40:	48 89 e5             	mov    %rsp,%rbp
  402f43:	89 4d 10             	mov    %ecx,0x10(%rbp)
  402f46:	8b 45 10             	mov    0x10(%rbp),%eax
  402f49:	25 00 00 3c 00       	and    $0x3c0000,%eax
  402f4e:	3d 00 00 1c 00       	cmp    $0x1c0000,%eax
  402f53:	0f 94 c0             	sete   %al
  402f56:	5d                   	pop    %rbp
  402f57:	c3                   	retq   

0000000000402f58 <bli_is_rih_packed>:
  402f58:	55                   	push   %rbp
  402f59:	48 89 e5             	mov    %rsp,%rbp
  402f5c:	48 83 ec 20          	sub    $0x20,%rsp
  402f60:	89 4d 10             	mov    %ecx,0x10(%rbp)
  402f63:	8b 4d 10             	mov    0x10(%rbp),%ecx
  402f66:	e8 a2 ff ff ff       	callq  402f0d <bli_is_ro_packed>
  402f6b:	84 c0                	test   %al,%al
  402f6d:	75 18                	jne    402f87 <bli_is_rih_packed+0x2f>
  402f6f:	8b 4d 10             	mov    0x10(%rbp),%ecx
  402f72:	e8 af ff ff ff       	callq  402f26 <bli_is_io_packed>
  402f77:	84 c0                	test   %al,%al
  402f79:	75 0c                	jne    402f87 <bli_is_rih_packed+0x2f>
  402f7b:	8b 4d 10             	mov    0x10(%rbp),%ecx
  402f7e:	e8 bc ff ff ff       	callq  402f3f <bli_is_rpi_packed>
  402f83:	84 c0                	test   %al,%al
  402f85:	74 07                	je     402f8e <bli_is_rih_packed+0x36>
  402f87:	b8 01 00 00 00       	mov    $0x1,%eax
  402f8c:	eb 05                	jmp    402f93 <bli_is_rih_packed+0x3b>
  402f8e:	b8 00 00 00 00       	mov    $0x0,%eax
  402f93:	83 e0 01             	and    $0x1,%eax
  402f96:	48 83 c4 20          	add    $0x20,%rsp
  402f9a:	5d                   	pop    %rbp
  402f9b:	c3                   	retq   

0000000000402f9c <bli_is_1r_packed>:
  402f9c:	55                   	push   %rbp
  402f9d:	48 89 e5             	mov    %rsp,%rbp
  402fa0:	89 4d 10             	mov    %ecx,0x10(%rbp)
  402fa3:	8b 45 10             	mov    0x10(%rbp),%eax
  402fa6:	25 00 00 3c 00       	and    $0x3c0000,%eax
  402fab:	3d 00 00 24 00       	cmp    $0x240000,%eax
  402fb0:	0f 94 c0             	sete   %al
  402fb3:	5d                   	pop    %rbp
  402fb4:	c3                   	retq   

0000000000402fb5 <bli_is_1e_packed>:
  402fb5:	55                   	push   %rbp
  402fb6:	48 89 e5             	mov    %rsp,%rbp
  402fb9:	89 4d 10             	mov    %ecx,0x10(%rbp)
  402fbc:	8b 45 10             	mov    0x10(%rbp),%eax
  402fbf:	25 00 00 3c 00       	and    $0x3c0000,%eax
  402fc4:	3d 00 00 20 00       	cmp    $0x200000,%eax
  402fc9:	0f 94 c0             	sete   %al
  402fcc:	5d                   	pop    %rbp
  402fcd:	c3                   	retq   

0000000000402fce <bli_is_1m_packed>:
  402fce:	55                   	push   %rbp
  402fcf:	48 89 e5             	mov    %rsp,%rbp
  402fd2:	48 83 ec 20          	sub    $0x20,%rsp
  402fd6:	89 4d 10             	mov    %ecx,0x10(%rbp)
  402fd9:	8b 4d 10             	mov    0x10(%rbp),%ecx
  402fdc:	e8 bb ff ff ff       	callq  402f9c <bli_is_1r_packed>
  402fe1:	84 c0                	test   %al,%al
  402fe3:	75 0c                	jne    402ff1 <bli_is_1m_packed+0x23>
  402fe5:	8b 4d 10             	mov    0x10(%rbp),%ecx
  402fe8:	e8 c8 ff ff ff       	callq  402fb5 <bli_is_1e_packed>
  402fed:	84 c0                	test   %al,%al
  402fef:	74 07                	je     402ff8 <bli_is_1m_packed+0x2a>
  402ff1:	b8 01 00 00 00       	mov    $0x1,%eax
  402ff6:	eb 05                	jmp    402ffd <bli_is_1m_packed+0x2f>
  402ff8:	b8 00 00 00 00       	mov    $0x0,%eax
  402ffd:	83 e0 01             	and    $0x1,%eax
  403000:	48 83 c4 20          	add    $0x20,%rsp
  403004:	5d                   	pop    %rbp
  403005:	c3                   	retq   

0000000000403006 <bli_is_nat_packed>:
  403006:	55                   	push   %rbp
  403007:	48 89 e5             	mov    %rsp,%rbp
  40300a:	89 4d 10             	mov    %ecx,0x10(%rbp)
  40300d:	8b 45 10             	mov    0x10(%rbp),%eax
  403010:	25 00 00 3c 00       	and    $0x3c0000,%eax
  403015:	85 c0                	test   %eax,%eax
  403017:	0f 94 c0             	sete   %al
  40301a:	5d                   	pop    %rbp
  40301b:	c3                   	retq   

000000000040301c <bli_is_ind_packed>:
  40301c:	55                   	push   %rbp
  40301d:	48 89 e5             	mov    %rsp,%rbp
  403020:	89 4d 10             	mov    %ecx,0x10(%rbp)
  403023:	8b 45 10             	mov    0x10(%rbp),%eax
  403026:	25 00 00 3c 00       	and    $0x3c0000,%eax
  40302b:	85 c0                	test   %eax,%eax
  40302d:	0f 95 c0             	setne  %al
  403030:	5d                   	pop    %rbp
  403031:	c3                   	retq   

0000000000403032 <bli_pack_schema_index>:
  403032:	55                   	push   %rbp
  403033:	48 89 e5             	mov    %rsp,%rbp
  403036:	89 4d 10             	mov    %ecx,0x10(%rbp)
  403039:	8b 45 10             	mov    0x10(%rbp),%eax
  40303c:	c1 e8 12             	shr    $0x12,%eax
  40303f:	89 c0                	mov    %eax,%eax
  403041:	83 e0 0f             	and    $0xf,%eax
  403044:	5d                   	pop    %rbp
  403045:	c3                   	retq   

0000000000403046 <bli_ptr_inc_by_frac>:
  403046:	55                   	push   %rbp
  403047:	48 89 e5             	mov    %rsp,%rbp
  40304a:	48 89 4d 10          	mov    %rcx,0x10(%rbp)
  40304e:	48 89 55 18          	mov    %rdx,0x18(%rbp)
  403052:	4c 89 45 20          	mov    %r8,0x20(%rbp)
  403056:	4c 89 4d 28          	mov    %r9,0x28(%rbp)
  40305a:	48 8b 45 18          	mov    0x18(%rbp),%rax
  40305e:	48 0f af 45 20       	imul   0x20(%rbp),%rax
  403063:	48 99                	cqto   
  403065:	48 f7 7d 28          	idivq  0x28(%rbp)
  403069:	48 89 c2             	mov    %rax,%rdx
  40306c:	48 8b 45 10          	mov    0x10(%rbp),%rax
  403070:	48 01 d0             	add    %rdx,%rax
  403073:	5d                   	pop    %rbp
  403074:	c3                   	retq   

0000000000403075 <bli_set_dims_incs_uplo_1m>:
  403075:	55                   	push   %rbp
  403076:	48 89 e5             	mov    %rsp,%rbp
  403079:	48 83 ec 50          	sub    $0x50,%rsp
  40307d:	48 89 4d 10          	mov    %rcx,0x10(%rbp)
  403081:	89 55 18             	mov    %edx,0x18(%rbp)
  403084:	44 89 45 20          	mov    %r8d,0x20(%rbp)
  403088:	4c 89 4d 28          	mov    %r9,0x28(%rbp)
  40308c:	48 8b 45 70          	mov    0x70(%rbp),%rax
  403090:	48 c7 00 00 00 00 00 	movq   $0x0,(%rax)
  403097:	48 8b 45 78          	mov    0x78(%rbp),%rax
  40309b:	48 c7 00 00 00 00 00 	movq   $0x0,(%rax)
  4030a2:	48 8b 4d 28          	mov    0x28(%rbp),%rcx
  4030a6:	8b 55 20             	mov    0x20(%rbp),%edx
  4030a9:	48 8b 45 30          	mov    0x30(%rbp),%rax
  4030ad:	48 89 44 24 20       	mov    %rax,0x20(%rsp)
  4030b2:	49 89 c9             	mov    %rcx,%r9
  4030b5:	41 89 d0             	mov    %edx,%r8d
  4030b8:	ba 00 00 00 00       	mov    $0x0,%edx
  4030bd:	48 8b 4d 10          	mov    0x10(%rbp),%rcx
  4030c1:	e8 9e f5 ff ff       	callq  402664 <bli_is_unstored_subpart>
  4030c6:	84 c0                	test   %al,%al
  4030c8:	74 0f                	je     4030d9 <bli_set_dims_incs_uplo_1m+0x64>
  4030ca:	48 8b 45 48          	mov    0x48(%rbp),%rax
  4030ce:	c7 00 00 00 00 00    	movl   $0x0,(%rax)
  4030d4:	e9 55 02 00 00       	jmpq   40332e <bli_set_dims_incs_uplo_1m+0x2b9>
  4030d9:	48 8b 45 10          	mov    0x10(%rbp),%rax
  4030dd:	48 89 45 f8          	mov    %rax,-0x8(%rbp)
  4030e1:	8b 45 18             	mov    0x18(%rbp),%eax
  4030e4:	89 c1                	mov    %eax,%ecx
  4030e6:	e8 b9 ed ff ff       	callq  401ea4 <bli_is_unit_diag>
  4030eb:	84 c0                	test   %al,%al
  4030ed:	74 0f                	je     4030fe <bli_set_dims_incs_uplo_1m+0x89>
  4030ef:	48 8d 45 f8          	lea    -0x8(%rbp),%rax
  4030f3:	8b 4d 20             	mov    0x20(%rbp),%ecx
  4030f6:	48 89 c2             	mov    %rax,%rdx
  4030f9:	e8 6d f3 ff ff       	callq  40246b <bli_shift_diag_offset_to_shrink_uplo>
  4030fe:	48 8b 45 f8          	mov    -0x8(%rbp),%rax
  403102:	4c 8b 45 28          	mov    0x28(%rbp),%r8
  403106:	8b 4d 20             	mov    0x20(%rbp),%ecx
  403109:	48 8b 55 30          	mov    0x30(%rbp),%rdx
  40310d:	48 89 54 24 20       	mov    %rdx,0x20(%rsp)
  403112:	4d 89 c1             	mov    %r8,%r9
  403115:	41 89 c8             	mov    %ecx,%r8d
  403118:	ba 00 00 00 00       	mov    $0x0,%edx
  40311d:	48 89 c1             	mov    %rax,%rcx
  403120:	e8 b7 f4 ff ff       	callq  4025dc <bli_is_stored_subpart>
  403125:	84 c0                	test   %al,%al
  403127:	74 07                	je     403130 <bli_set_dims_incs_uplo_1m+0xbb>
  403129:	c7 45 20 e0 00 00 00 	movl   $0xe0,0x20(%rbp)
  403130:	48 8b 45 30          	mov    0x30(%rbp),%rax
  403134:	48 89 45 e8          	mov    %rax,-0x18(%rbp)
  403138:	48 8b 45 50          	mov    0x50(%rbp),%rax
  40313c:	48 8b 55 28          	mov    0x28(%rbp),%rdx
  403140:	48 89 10             	mov    %rdx,(%rax)
  403143:	48 8b 45 60          	mov    0x60(%rbp),%rax
  403147:	48 8b 55 38          	mov    0x38(%rbp),%rdx
  40314b:	48 89 10             	mov    %rdx,(%rax)
  40314e:	48 8b 45 68          	mov    0x68(%rbp),%rax
  403152:	48 8b 55 40          	mov    0x40(%rbp),%rdx
  403156:	48 89 10             	mov    %rdx,(%rax)
  403159:	48 8b 45 48          	mov    0x48(%rbp),%rax
  40315d:	8b 55 20             	mov    0x20(%rbp),%edx
  403160:	89 10                	mov    %edx,(%rax)
  403162:	48 8b 45 f8          	mov    -0x8(%rbp),%rax
  403166:	48 89 45 f0          	mov    %rax,-0x10(%rbp)
  40316a:	48 8b 45 68          	mov    0x68(%rbp),%rax
  40316e:	4c 8b 00             	mov    (%rax),%r8
  403171:	48 8b 45 60          	mov    0x60(%rbp),%rax
  403175:	48 8b 08             	mov    (%rax),%rcx
  403178:	48 8b 55 e8          	mov    -0x18(%rbp),%rdx
  40317c:	48 8b 45 50          	mov    0x50(%rbp),%rax
  403180:	48 8b 00             	mov    (%rax),%rax
  403183:	4d 89 c1             	mov    %r8,%r9
  403186:	49 89 c8             	mov    %rcx,%r8
  403189:	48 89 c1             	mov    %rax,%rcx
  40318c:	e8 fc f0 ff ff       	callq  40228d <bli_is_row_tilted>
  403191:	84 c0                	test   %al,%al
  403193:	74 38                	je     4031cd <bli_set_dims_incs_uplo_1m+0x158>
  403195:	48 8b 55 50          	mov    0x50(%rbp),%rdx
  403199:	48 8d 45 e8          	lea    -0x18(%rbp),%rax
  40319d:	48 89 c1             	mov    %rax,%rcx
  4031a0:	e8 f4 e6 ff ff       	callq  401899 <bli_swap_dims>
  4031a5:	48 8b 55 68          	mov    0x68(%rbp),%rdx
  4031a9:	48 8b 45 60          	mov    0x60(%rbp),%rax
  4031ad:	48 89 c1             	mov    %rax,%rcx
  4031b0:	e8 1f e7 ff ff       	callq  4018d4 <bli_swap_incs>
  4031b5:	48 8b 45 48          	mov    0x48(%rbp),%rax
  4031b9:	48 89 c1             	mov    %rax,%rcx
  4031bc:	e8 c1 eb ff ff       	callq  401d82 <bli_toggle_uplo>
  4031c1:	48 8d 45 f0          	lea    -0x10(%rbp),%rax
  4031c5:	48 89 c1             	mov    %rax,%rcx
  4031c8:	e8 2b f2 ff ff       	callq  4023f8 <bli_negate_diag_offset>
  4031cd:	48 8b 45 48          	mov    0x48(%rbp),%rax
  4031d1:	8b 00                	mov    (%rax),%eax
  4031d3:	89 c1                	mov    %eax,%ecx
  4031d5:	e8 5e eb ff ff       	callq  401d38 <bli_is_dense>
  4031da:	84 c0                	test   %al,%al
  4031dc:	74 10                	je     4031ee <bli_set_dims_incs_uplo_1m+0x179>
  4031de:	48 8b 55 e8          	mov    -0x18(%rbp),%rdx
  4031e2:	48 8b 45 58          	mov    0x58(%rbp),%rax
  4031e6:	48 89 10             	mov    %rdx,(%rax)
  4031e9:	e9 40 01 00 00       	jmpq   40332e <bli_set_dims_incs_uplo_1m+0x2b9>
  4031ee:	48 8b 45 48          	mov    0x48(%rbp),%rax
  4031f2:	8b 00                	mov    (%rax),%eax
  4031f4:	89 c1                	mov    %eax,%ecx
  4031f6:	e8 f5 ea ff ff       	callq  401cf0 <bli_is_upper>
  4031fb:	84 c0                	test   %al,%al
  4031fd:	0f 84 8e 00 00 00    	je     403291 <bli_set_dims_incs_uplo_1m+0x21c>
  403203:	48 8b 45 f0          	mov    -0x10(%rbp),%rax
  403207:	48 85 c0             	test   %rax,%rax
  40320a:	79 58                	jns    403264 <bli_set_dims_incs_uplo_1m+0x1ef>
  40320c:	48 8b 45 70          	mov    0x70(%rbp),%rax
  403210:	48 c7 00 00 00 00 00 	movq   $0x0,(%rax)
  403217:	48 8b 45 f0          	mov    -0x10(%rbp),%rax
  40321b:	48 f7 d8             	neg    %rax
  40321e:	48 89 c2             	mov    %rax,%rdx
  403221:	48 8b 45 78          	mov    0x78(%rbp),%rax
  403225:	48 89 10             	mov    %rdx,(%rax)
  403228:	48 8b 45 78          	mov    0x78(%rbp),%rax
  40322c:	48 8b 10             	mov    (%rax),%rdx
  40322f:	48 8b 45 28          	mov    0x28(%rbp),%rax
  403233:	48 39 45 30          	cmp    %rax,0x30(%rbp)
  403237:	48 0f 4e 45 30       	cmovle 0x30(%rbp),%rax
  40323c:	48 01 c2             	add    %rax,%rdx
  40323f:	48 8b 45 50          	mov    0x50(%rbp),%rax
  403243:	48 8b 00             	mov    (%rax),%rax
  403246:	48 39 c2             	cmp    %rax,%rdx
  403249:	48 0f 4e c2          	cmovle %rdx,%rax
  40324d:	48 8b 55 50          	mov    0x50(%rbp),%rdx
  403251:	48 89 02             	mov    %rax,(%rdx)
  403254:	48 8b 55 e8          	mov    -0x18(%rbp),%rdx
  403258:	48 8b 45 58          	mov    0x58(%rbp),%rax
  40325c:	48 89 10             	mov    %rdx,(%rax)
  40325f:	e9 ca 00 00 00       	jmpq   40332e <bli_set_dims_incs_uplo_1m+0x2b9>
  403264:	48 8b 55 f0          	mov    -0x10(%rbp),%rdx
  403268:	48 8b 45 70          	mov    0x70(%rbp),%rax
  40326c:	48 89 10             	mov    %rdx,(%rax)
  40326f:	48 8b 45 78          	mov    0x78(%rbp),%rax
  403273:	48 c7 00 00 00 00 00 	movq   $0x0,(%rax)
  40327a:	48 8b 55 e8          	mov    -0x18(%rbp),%rdx
  40327e:	48 8b 45 f0          	mov    -0x10(%rbp),%rax
  403282:	48 29 c2             	sub    %rax,%rdx
  403285:	48 8b 45 58          	mov    0x58(%rbp),%rax
  403289:	48 89 10             	mov    %rdx,(%rax)
  40328c:	e9 9d 00 00 00       	jmpq   40332e <bli_set_dims_incs_uplo_1m+0x2b9>
  403291:	48 8b 45 f0          	mov    -0x10(%rbp),%rax
  403295:	48 85 c0             	test   %rax,%rax
  403298:	79 55                	jns    4032ef <bli_set_dims_incs_uplo_1m+0x27a>
  40329a:	48 8b 45 f0          	mov    -0x10(%rbp),%rax
  40329e:	48 f7 d8             	neg    %rax
  4032a1:	48 89 c2             	mov    %rax,%rdx
  4032a4:	48 8b 45 70          	mov    0x70(%rbp),%rax
  4032a8:	48 89 10             	mov    %rdx,(%rax)
  4032ab:	48 8b 45 78          	mov    0x78(%rbp),%rax
  4032af:	48 c7 00 00 00 00 00 	movq   $0x0,(%rax)
  4032b6:	48 8b 45 50          	mov    0x50(%rbp),%rax
  4032ba:	48 8b 10             	mov    (%rax),%rdx
  4032bd:	48 8b 45 f0          	mov    -0x10(%rbp),%rax
  4032c1:	48 01 c2             	add    %rax,%rdx
  4032c4:	48 8b 45 50          	mov    0x50(%rbp),%rax
  4032c8:	48 89 10             	mov    %rdx,(%rax)
  4032cb:	48 8b 45 28          	mov    0x28(%rbp),%rax
  4032cf:	48 39 45 30          	cmp    %rax,0x30(%rbp)
  4032d3:	48 0f 4e 45 30       	cmovle 0x30(%rbp),%rax
  4032d8:	48 8b 55 50          	mov    0x50(%rbp),%rdx
  4032dc:	48 8b 12             	mov    (%rdx),%rdx
  4032df:	48 39 d0             	cmp    %rdx,%rax
  4032e2:	48 0f 4f c2          	cmovg  %rdx,%rax
  4032e6:	48 8b 55 58          	mov    0x58(%rbp),%rdx
  4032ea:	48 89 02             	mov    %rax,(%rdx)
  4032ed:	eb 3f                	jmp    40332e <bli_set_dims_incs_uplo_1m+0x2b9>
  4032ef:	48 8b 45 70          	mov    0x70(%rbp),%rax
  4032f3:	48 c7 00 00 00 00 00 	movq   $0x0,(%rax)
  4032fa:	48 8b 55 f0          	mov    -0x10(%rbp),%rdx
  4032fe:	48 8b 45 78          	mov    0x78(%rbp),%rax
  403302:	48 89 10             	mov    %rdx,(%rax)
  403305:	48 8b 45 78          	mov    0x78(%rbp),%rax
  403309:	48 8b 10             	mov    (%rax),%rdx
  40330c:	48 8b 45 28          	mov    0x28(%rbp),%rax
  403310:	48 39 45 30          	cmp    %rax,0x30(%rbp)
  403314:	48 0f 4e 45 30       	cmovle 0x30(%rbp),%rax
  403319:	48 01 c2             	add    %rax,%rdx
  40331c:	48 8b 45 e8          	mov    -0x18(%rbp),%rax
  403320:	48 39 c2             	cmp    %rax,%rdx
  403323:	48 0f 4e c2          	cmovle %rdx,%rax
  403327:	48 8b 55 58          	mov    0x58(%rbp),%rdx
  40332b:	48 89 02             	mov    %rax,(%rdx)
  40332e:	90                   	nop
  40332f:	48 83 c4 50          	add    $0x50,%rsp
  403333:	5d                   	pop    %rbp
  403334:	c3                   	retq   

0000000000403335 <bli_set_dims_incs_uplo_1m_noswap>:
  403335:	55                   	push   %rbp
  403336:	48 89 e5             	mov    %rsp,%rbp
  403339:	48 83 ec 50          	sub    $0x50,%rsp
  40333d:	48 89 4d 10          	mov    %rcx,0x10(%rbp)
  403341:	89 55 18             	mov    %edx,0x18(%rbp)
  403344:	44 89 45 20          	mov    %r8d,0x20(%rbp)
  403348:	4c 89 4d 28          	mov    %r9,0x28(%rbp)
  40334c:	48 8b 45 70          	mov    0x70(%rbp),%rax
  403350:	48 c7 00 00 00 00 00 	movq   $0x0,(%rax)
  403357:	48 8b 45 78          	mov    0x78(%rbp),%rax
  40335b:	48 c7 00 00 00 00 00 	movq   $0x0,(%rax)
  403362:	48 8b 4d 28          	mov    0x28(%rbp),%rcx
  403366:	8b 55 20             	mov    0x20(%rbp),%edx
  403369:	48 8b 45 30          	mov    0x30(%rbp),%rax
  40336d:	48 89 44 24 20       	mov    %rax,0x20(%rsp)
  403372:	49 89 c9             	mov    %rcx,%r9
  403375:	41 89 d0             	mov    %edx,%r8d
  403378:	ba 00 00 00 00       	mov    $0x0,%edx
  40337d:	48 8b 4d 10          	mov    0x10(%rbp),%rcx
  403381:	e8 de f2 ff ff       	callq  402664 <bli_is_unstored_subpart>
  403386:	84 c0                	test   %al,%al
  403388:	74 0f                	je     403399 <bli_set_dims_incs_uplo_1m_noswap+0x64>
  40338a:	48 8b 45 48          	mov    0x48(%rbp),%rax
  40338e:	c7 00 00 00 00 00    	movl   $0x0,(%rax)
  403394:	e9 e9 01 00 00       	jmpq   403582 <bli_set_dims_incs_uplo_1m_noswap+0x24d>
  403399:	48 8b 45 10          	mov    0x10(%rbp),%rax
  40339d:	48 89 45 e8          	mov    %rax,-0x18(%rbp)
  4033a1:	8b 45 18             	mov    0x18(%rbp),%eax
  4033a4:	89 c1                	mov    %eax,%ecx
  4033a6:	e8 f9 ea ff ff       	callq  401ea4 <bli_is_unit_diag>
  4033ab:	84 c0                	test   %al,%al
  4033ad:	74 0f                	je     4033be <bli_set_dims_incs_uplo_1m_noswap+0x89>
  4033af:	48 8d 45 e8          	lea    -0x18(%rbp),%rax
  4033b3:	8b 4d 20             	mov    0x20(%rbp),%ecx
  4033b6:	48 89 c2             	mov    %rax,%rdx
  4033b9:	e8 ad f0 ff ff       	callq  40246b <bli_shift_diag_offset_to_shrink_uplo>
  4033be:	48 8b 45 e8          	mov    -0x18(%rbp),%rax
  4033c2:	4c 8b 45 28          	mov    0x28(%rbp),%r8
  4033c6:	8b 4d 20             	mov    0x20(%rbp),%ecx
  4033c9:	48 8b 55 30          	mov    0x30(%rbp),%rdx
  4033cd:	48 89 54 24 20       	mov    %rdx,0x20(%rsp)
  4033d2:	4d 89 c1             	mov    %r8,%r9
  4033d5:	41 89 c8             	mov    %ecx,%r8d
  4033d8:	ba 00 00 00 00       	mov    $0x0,%edx
  4033dd:	48 89 c1             	mov    %rax,%rcx
  4033e0:	e8 f7 f1 ff ff       	callq  4025dc <bli_is_stored_subpart>
  4033e5:	84 c0                	test   %al,%al
  4033e7:	74 07                	je     4033f0 <bli_set_dims_incs_uplo_1m_noswap+0xbb>
  4033e9:	c7 45 20 e0 00 00 00 	movl   $0xe0,0x20(%rbp)
  4033f0:	48 8b 45 30          	mov    0x30(%rbp),%rax
  4033f4:	48 89 45 f8          	mov    %rax,-0x8(%rbp)
  4033f8:	48 8b 45 50          	mov    0x50(%rbp),%rax
  4033fc:	48 8b 55 28          	mov    0x28(%rbp),%rdx
  403400:	48 89 10             	mov    %rdx,(%rax)
  403403:	48 8b 45 60          	mov    0x60(%rbp),%rax
  403407:	48 8b 55 38          	mov    0x38(%rbp),%rdx
  40340b:	48 89 10             	mov    %rdx,(%rax)
  40340e:	48 8b 45 68          	mov    0x68(%rbp),%rax
  403412:	48 8b 55 40          	mov    0x40(%rbp),%rdx
  403416:	48 89 10             	mov    %rdx,(%rax)
  403419:	48 8b 45 48          	mov    0x48(%rbp),%rax
  40341d:	8b 55 20             	mov    0x20(%rbp),%edx
  403420:	89 10                	mov    %edx,(%rax)
  403422:	48 8b 45 e8          	mov    -0x18(%rbp),%rax
  403426:	48 89 45 f0          	mov    %rax,-0x10(%rbp)
  40342a:	48 8b 45 48          	mov    0x48(%rbp),%rax
  40342e:	8b 00                	mov    (%rax),%eax
  403430:	89 c1                	mov    %eax,%ecx
  403432:	e8 01 e9 ff ff       	callq  401d38 <bli_is_dense>
  403437:	84 c0                	test   %al,%al
  403439:	74 10                	je     40344b <bli_set_dims_incs_uplo_1m_noswap+0x116>
  40343b:	48 8b 45 58          	mov    0x58(%rbp),%rax
  40343f:	48 8b 55 f8          	mov    -0x8(%rbp),%rdx
  403443:	48 89 10             	mov    %rdx,(%rax)
  403446:	e9 37 01 00 00       	jmpq   403582 <bli_set_dims_incs_uplo_1m_noswap+0x24d>
  40344b:	48 8b 45 48          	mov    0x48(%rbp),%rax
  40344f:	8b 00                	mov    (%rax),%eax
  403451:	89 c1                	mov    %eax,%ecx
  403453:	e8 98 e8 ff ff       	callq  401cf0 <bli_is_upper>
  403458:	84 c0                	test   %al,%al
  40345a:	0f 84 89 00 00 00    	je     4034e9 <bli_set_dims_incs_uplo_1m_noswap+0x1b4>
  403460:	48 83 7d f0 00       	cmpq   $0x0,-0x10(%rbp)
  403465:	79 58                	jns    4034bf <bli_set_dims_incs_uplo_1m_noswap+0x18a>
  403467:	48 8b 45 70          	mov    0x70(%rbp),%rax
  40346b:	48 c7 00 00 00 00 00 	movq   $0x0,(%rax)
  403472:	48 8b 45 f0          	mov    -0x10(%rbp),%rax
  403476:	48 f7 d8             	neg    %rax
  403479:	48 89 c2             	mov    %rax,%rdx
  40347c:	48 8b 45 78          	mov    0x78(%rbp),%rax
  403480:	48 89 10             	mov    %rdx,(%rax)
  403483:	48 8b 45 78          	mov    0x78(%rbp),%rax
  403487:	48 8b 10             	mov    (%rax),%rdx
  40348a:	48 8b 45 28          	mov    0x28(%rbp),%rax
  40348e:	48 39 45 30          	cmp    %rax,0x30(%rbp)
  403492:	48 0f 4e 45 30       	cmovle 0x30(%rbp),%rax
  403497:	48 01 c2             	add    %rax,%rdx
  40349a:	48 8b 45 50          	mov    0x50(%rbp),%rax
  40349e:	48 8b 00             	mov    (%rax),%rax
  4034a1:	48 39 c2             	cmp    %rax,%rdx
  4034a4:	48 0f 4e c2          	cmovle %rdx,%rax
  4034a8:	48 8b 55 50          	mov    0x50(%rbp),%rdx
  4034ac:	48 89 02             	mov    %rax,(%rdx)
  4034af:	48 8b 45 58          	mov    0x58(%rbp),%rax
  4034b3:	48 8b 55 f8          	mov    -0x8(%rbp),%rdx
  4034b7:	48 89 10             	mov    %rdx,(%rax)
  4034ba:	e9 c3 00 00 00       	jmpq   403582 <bli_set_dims_incs_uplo_1m_noswap+0x24d>
  4034bf:	48 8b 45 70          	mov    0x70(%rbp),%rax
  4034c3:	48 8b 55 f0          	mov    -0x10(%rbp),%rdx
  4034c7:	48 89 10             	mov    %rdx,(%rax)
  4034ca:	48 8b 45 78          	mov    0x78(%rbp),%rax
  4034ce:	48 c7 00 00 00 00 00 	movq   $0x0,(%rax)
  4034d5:	48 8b 45 f8          	mov    -0x8(%rbp),%rax
  4034d9:	48 2b 45 f0          	sub    -0x10(%rbp),%rax
  4034dd:	48 8b 55 58          	mov    0x58(%rbp),%rdx
  4034e1:	48 89 02             	mov    %rax,(%rdx)
  4034e4:	e9 99 00 00 00       	jmpq   403582 <bli_set_dims_incs_uplo_1m_noswap+0x24d>
  4034e9:	48 83 7d f0 00       	cmpq   $0x0,-0x10(%rbp)
  4034ee:	79 55                	jns    403545 <bli_set_dims_incs_uplo_1m_noswap+0x210>
  4034f0:	48 8b 45 f0          	mov    -0x10(%rbp),%rax
  4034f4:	48 f7 d8             	neg    %rax
  4034f7:	48 89 c2             	mov    %rax,%rdx
  4034fa:	48 8b 45 70          	mov    0x70(%rbp),%rax
  4034fe:	48 89 10             	mov    %rdx,(%rax)
  403501:	48 8b 45 78          	mov    0x78(%rbp),%rax
  403505:	48 c7 00 00 00 00 00 	movq   $0x0,(%rax)
  40350c:	48 8b 45 50          	mov    0x50(%rbp),%rax
  403510:	48 8b 10             	mov    (%rax),%rdx
  403513:	48 8b 45 f0          	mov    -0x10(%rbp),%rax
  403517:	48 01 c2             	add    %rax,%rdx
  40351a:	48 8b 45 50          	mov    0x50(%rbp),%rax
  40351e:	48 89 10             	mov    %rdx,(%rax)
  403521:	48 8b 45 28          	mov    0x28(%rbp),%rax
  403525:	48 39 45 30          	cmp    %rax,0x30(%rbp)
  403529:	48 0f 4e 45 30       	cmovle 0x30(%rbp),%rax
  40352e:	48 8b 55 50          	mov    0x50(%rbp),%rdx
  403532:	48 8b 12             	mov    (%rdx),%rdx
  403535:	48 39 d0             	cmp    %rdx,%rax
  403538:	48 0f 4f c2          	cmovg  %rdx,%rax
  40353c:	48 8b 55 58          	mov    0x58(%rbp),%rdx
  403540:	48 89 02             	mov    %rax,(%rdx)
  403543:	eb 3d                	jmp    403582 <bli_set_dims_incs_uplo_1m_noswap+0x24d>
  403545:	48 8b 45 70          	mov    0x70(%rbp),%rax
  403549:	48 c7 00 00 00 00 00 	movq   $0x0,(%rax)
  403550:	48 8b 45 78          	mov    0x78(%rbp),%rax
  403554:	48 8b 55 f0          	mov    -0x10(%rbp),%rdx
  403558:	48 89 10             	mov    %rdx,(%rax)
  40355b:	48 8b 45 78          	mov    0x78(%rbp),%rax
  40355f:	48 8b 10             	mov    (%rax),%rdx
  403562:	48 8b 45 28          	mov    0x28(%rbp),%rax
  403566:	48 39 45 30          	cmp    %rax,0x30(%rbp)
  40356a:	48 0f 4e 45 30       	cmovle 0x30(%rbp),%rax
  40356f:	48 01 d0             	add    %rdx,%rax
  403572:	48 39 45 f8          	cmp    %rax,-0x8(%rbp)
  403576:	48 0f 4e 45 f8       	cmovle -0x8(%rbp),%rax
  40357b:	48 8b 55 58          	mov    0x58(%rbp),%rdx
  40357f:	48 89 02             	mov    %rax,(%rdx)
  403582:	90                   	nop
  403583:	48 83 c4 50          	add    $0x50,%rsp
  403587:	5d                   	pop    %rbp
  403588:	c3                   	retq   

0000000000403589 <bli_set_dims_incs_2m>:
  403589:	55                   	push   %rbp
  40358a:	48 89 e5             	mov    %rsp,%rbp
  40358d:	48 83 ec 20          	sub    $0x20,%rsp
  403591:	89 4d 10             	mov    %ecx,0x10(%rbp)
  403594:	48 89 55 18          	mov    %rdx,0x18(%rbp)
  403598:	4c 89 45 20          	mov    %r8,0x20(%rbp)
  40359c:	4c 89 4d 28          	mov    %r9,0x28(%rbp)
  4035a0:	48 8b 45 50          	mov    0x50(%rbp),%rax
  4035a4:	48 8b 55 20          	mov    0x20(%rbp),%rdx
  4035a8:	48 89 10             	mov    %rdx,(%rax)
  4035ab:	48 8b 45 48          	mov    0x48(%rbp),%rax
  4035af:	48 8b 55 18          	mov    0x18(%rbp),%rdx
  4035b3:	48 89 10             	mov    %rdx,(%rax)
  4035b6:	48 8b 45 58          	mov    0x58(%rbp),%rax
  4035ba:	48 8b 55 28          	mov    0x28(%rbp),%rdx
  4035be:	48 89 10             	mov    %rdx,(%rax)
  4035c1:	48 8b 45 60          	mov    0x60(%rbp),%rax
  4035c5:	48 8b 55 30          	mov    0x30(%rbp),%rdx
  4035c9:	48 89 10             	mov    %rdx,(%rax)
  4035cc:	48 8b 45 68          	mov    0x68(%rbp),%rax
  4035d0:	48 8b 55 38          	mov    0x38(%rbp),%rdx
  4035d4:	48 89 10             	mov    %rdx,(%rax)
  4035d7:	48 8b 45 70          	mov    0x70(%rbp),%rax
  4035db:	48 8b 55 40          	mov    0x40(%rbp),%rdx
  4035df:	48 89 10             	mov    %rdx,(%rax)
  4035e2:	8b 4d 10             	mov    0x10(%rbp),%ecx
  4035e5:	e8 ef e5 ff ff       	callq  401bd9 <bli_does_trans>
  4035ea:	84 c0                	test   %al,%al
  4035ec:	74 10                	je     4035fe <bli_set_dims_incs_2m+0x75>
  4035ee:	48 8b 55 60          	mov    0x60(%rbp),%rdx
  4035f2:	48 8b 45 58          	mov    0x58(%rbp),%rax
  4035f6:	48 89 c1             	mov    %rax,%rcx
  4035f9:	e8 d6 e2 ff ff       	callq  4018d4 <bli_swap_incs>
  4035fe:	48 8b 45 70          	mov    0x70(%rbp),%rax
  403602:	4c 8b 00             	mov    (%rax),%r8
  403605:	48 8b 45 68          	mov    0x68(%rbp),%rax
  403609:	48 8b 08             	mov    (%rax),%rcx
  40360c:	48 8b 45 50          	mov    0x50(%rbp),%rax
  403610:	48 8b 10             	mov    (%rax),%rdx
  403613:	48 8b 45 48          	mov    0x48(%rbp),%rax
  403617:	48 8b 00             	mov    (%rax),%rax
  40361a:	4d 89 c1             	mov    %r8,%r9
  40361d:	49 89 c8             	mov    %rcx,%r8
  403620:	48 89 c1             	mov    %rax,%rcx
  403623:	e8 65 ec ff ff       	callq  40228d <bli_is_row_tilted>
  403628:	84 c0                	test   %al,%al
  40362a:	74 5e                	je     40368a <bli_set_dims_incs_2m+0x101>
  40362c:	48 8b 45 60          	mov    0x60(%rbp),%rax
  403630:	4c 8b 00             	mov    (%rax),%r8
  403633:	48 8b 45 58          	mov    0x58(%rbp),%rax
  403637:	48 8b 08             	mov    (%rax),%rcx
  40363a:	48 8b 45 50          	mov    0x50(%rbp),%rax
  40363e:	48 8b 10             	mov    (%rax),%rdx
  403641:	48 8b 45 48          	mov    0x48(%rbp),%rax
  403645:	48 8b 00             	mov    (%rax),%rax
  403648:	4d 89 c1             	mov    %r8,%r9
  40364b:	49 89 c8             	mov    %rcx,%r8
  40364e:	48 89 c1             	mov    %rax,%rcx
  403651:	e8 37 ec ff ff       	callq  40228d <bli_is_row_tilted>
  403656:	84 c0                	test   %al,%al
  403658:	74 30                	je     40368a <bli_set_dims_incs_2m+0x101>
  40365a:	48 8b 55 48          	mov    0x48(%rbp),%rdx
  40365e:	48 8b 45 50          	mov    0x50(%rbp),%rax
  403662:	48 89 c1             	mov    %rax,%rcx
  403665:	e8 2f e2 ff ff       	callq  401899 <bli_swap_dims>
  40366a:	48 8b 55 60          	mov    0x60(%rbp),%rdx
  40366e:	48 8b 45 58          	mov    0x58(%rbp),%rax
  403672:	48 89 c1             	mov    %rax,%rcx
  403675:	e8 5a e2 ff ff       	callq  4018d4 <bli_swap_incs>
  40367a:	48 8b 55 70          	mov    0x70(%rbp),%rdx
  40367e:	48 8b 45 68          	mov    0x68(%rbp),%rax
  403682:	48 89 c1             	mov    %rax,%rcx
  403685:	e8 4a e2 ff ff       	callq  4018d4 <bli_swap_incs>
  40368a:	90                   	nop
  40368b:	48 83 c4 20          	add    $0x20,%rsp
  40368f:	5d                   	pop    %rbp
  403690:	c3                   	retq   

0000000000403691 <bli_set_dims_incs_uplo_2m>:
  403691:	55                   	push   %rbp
  403692:	48 89 e5             	mov    %rsp,%rbp
  403695:	48 83 ec 50          	sub    $0x50,%rsp
  403699:	48 89 4d 10          	mov    %rcx,0x10(%rbp)
  40369d:	89 55 18             	mov    %edx,0x18(%rbp)
  4036a0:	44 89 45 20          	mov    %r8d,0x20(%rbp)
  4036a4:	44 89 4d 28          	mov    %r9d,0x28(%rbp)
  4036a8:	48 8b 85 98 00 00 00 	mov    0x98(%rbp),%rax
  4036af:	48 c7 00 00 00 00 00 	movq   $0x0,(%rax)
  4036b6:	48 8b 85 a0 00 00 00 	mov    0xa0(%rbp),%rax
  4036bd:	48 c7 00 00 00 00 00 	movq   $0x0,(%rax)
  4036c4:	4c 8b 45 30          	mov    0x30(%rbp),%r8
  4036c8:	8b 4d 28             	mov    0x28(%rbp),%ecx
  4036cb:	8b 45 20             	mov    0x20(%rbp),%eax
  4036ce:	48 8b 55 38          	mov    0x38(%rbp),%rdx
  4036d2:	48 89 54 24 20       	mov    %rdx,0x20(%rsp)
  4036d7:	4d 89 c1             	mov    %r8,%r9
  4036da:	41 89 c8             	mov    %ecx,%r8d
  4036dd:	89 c2                	mov    %eax,%edx
  4036df:	48 8b 4d 10          	mov    0x10(%rbp),%rcx
  4036e3:	e8 7c ef ff ff       	callq  402664 <bli_is_unstored_subpart>
  4036e8:	84 c0                	test   %al,%al
  4036ea:	74 0f                	je     4036fb <bli_set_dims_incs_uplo_2m+0x6a>
  4036ec:	48 8b 45 60          	mov    0x60(%rbp),%rax
  4036f0:	c7 00 00 00 00 00    	movl   $0x0,(%rax)
  4036f6:	e9 11 03 00 00       	jmpq   403a0c <bli_set_dims_incs_uplo_2m+0x37b>
  4036fb:	48 8b 45 10          	mov    0x10(%rbp),%rax
  4036ff:	48 89 45 f8          	mov    %rax,-0x8(%rbp)
  403703:	8b 45 18             	mov    0x18(%rbp),%eax
  403706:	89 c1                	mov    %eax,%ecx
  403708:	e8 97 e7 ff ff       	callq  401ea4 <bli_is_unit_diag>
  40370d:	84 c0                	test   %al,%al
  40370f:	74 0f                	je     403720 <bli_set_dims_incs_uplo_2m+0x8f>
  403711:	48 8d 45 f8          	lea    -0x8(%rbp),%rax
  403715:	8b 4d 28             	mov    0x28(%rbp),%ecx
  403718:	48 89 c2             	mov    %rax,%rdx
  40371b:	e8 4b ed ff ff       	callq  40246b <bli_shift_diag_offset_to_shrink_uplo>
  403720:	48 8b 45 f8          	mov    -0x8(%rbp),%rax
  403724:	4c 8b 4d 30          	mov    0x30(%rbp),%r9
  403728:	44 8b 45 28          	mov    0x28(%rbp),%r8d
  40372c:	8b 55 20             	mov    0x20(%rbp),%edx
  40372f:	48 8b 4d 38          	mov    0x38(%rbp),%rcx
  403733:	48 89 4c 24 20       	mov    %rcx,0x20(%rsp)
  403738:	48 89 c1             	mov    %rax,%rcx
  40373b:	e8 9c ee ff ff       	callq  4025dc <bli_is_stored_subpart>
  403740:	84 c0                	test   %al,%al
  403742:	74 07                	je     40374b <bli_set_dims_incs_uplo_2m+0xba>
  403744:	c7 45 28 e0 00 00 00 	movl   $0xe0,0x28(%rbp)
  40374b:	48 8b 45 38          	mov    0x38(%rbp),%rax
  40374f:	48 89 45 e8          	mov    %rax,-0x18(%rbp)
  403753:	48 8b 45 68          	mov    0x68(%rbp),%rax
  403757:	48 8b 55 30          	mov    0x30(%rbp),%rdx
  40375b:	48 89 10             	mov    %rdx,(%rax)
  40375e:	48 8b 45 78          	mov    0x78(%rbp),%rax
  403762:	48 8b 55 40          	mov    0x40(%rbp),%rdx
  403766:	48 89 10             	mov    %rdx,(%rax)
  403769:	48 8b 85 80 00 00 00 	mov    0x80(%rbp),%rax
  403770:	48 8b 55 48          	mov    0x48(%rbp),%rdx
  403774:	48 89 10             	mov    %rdx,(%rax)
  403777:	48 8b 85 88 00 00 00 	mov    0x88(%rbp),%rax
  40377e:	48 8b 55 50          	mov    0x50(%rbp),%rdx
  403782:	48 89 10             	mov    %rdx,(%rax)
  403785:	48 8b 85 90 00 00 00 	mov    0x90(%rbp),%rax
  40378c:	48 8b 55 58          	mov    0x58(%rbp),%rdx
  403790:	48 89 10             	mov    %rdx,(%rax)
  403793:	48 8b 45 60          	mov    0x60(%rbp),%rax
  403797:	8b 55 28             	mov    0x28(%rbp),%edx
  40379a:	89 10                	mov    %edx,(%rax)
  40379c:	48 8b 45 f8          	mov    -0x8(%rbp),%rax
  4037a0:	48 89 45 f0          	mov    %rax,-0x10(%rbp)
  4037a4:	8b 45 20             	mov    0x20(%rbp),%eax
  4037a7:	89 c1                	mov    %eax,%ecx
  4037a9:	e8 2b e4 ff ff       	callq  401bd9 <bli_does_trans>
  4037ae:	84 c0                	test   %al,%al
  4037b0:	74 2b                	je     4037dd <bli_set_dims_incs_uplo_2m+0x14c>
  4037b2:	48 8b 95 80 00 00 00 	mov    0x80(%rbp),%rdx
  4037b9:	48 8b 45 78          	mov    0x78(%rbp),%rax
  4037bd:	48 89 c1             	mov    %rax,%rcx
  4037c0:	e8 0f e1 ff ff       	callq  4018d4 <bli_swap_incs>
  4037c5:	48 8b 45 60          	mov    0x60(%rbp),%rax
  4037c9:	48 89 c1             	mov    %rax,%rcx
  4037cc:	e8 b1 e5 ff ff       	callq  401d82 <bli_toggle_uplo>
  4037d1:	48 8d 45 f0          	lea    -0x10(%rbp),%rax
  4037d5:	48 89 c1             	mov    %rax,%rcx
  4037d8:	e8 1b ec ff ff       	callq  4023f8 <bli_negate_diag_offset>
  4037dd:	48 8b 85 90 00 00 00 	mov    0x90(%rbp),%rax
  4037e4:	4c 8b 00             	mov    (%rax),%r8
  4037e7:	48 8b 85 88 00 00 00 	mov    0x88(%rbp),%rax
  4037ee:	48 8b 08             	mov    (%rax),%rcx
  4037f1:	48 8b 55 e8          	mov    -0x18(%rbp),%rdx
  4037f5:	48 8b 45 68          	mov    0x68(%rbp),%rax
  4037f9:	48 8b 00             	mov    (%rax),%rax
  4037fc:	4d 89 c1             	mov    %r8,%r9
  4037ff:	49 89 c8             	mov    %rcx,%r8
  403802:	48 89 c1             	mov    %rax,%rcx
  403805:	e8 83 ea ff ff       	callq  40228d <bli_is_row_tilted>
  40380a:	84 c0                	test   %al,%al
  40380c:	74 7f                	je     40388d <bli_set_dims_incs_uplo_2m+0x1fc>
  40380e:	48 8b 85 80 00 00 00 	mov    0x80(%rbp),%rax
  403815:	4c 8b 00             	mov    (%rax),%r8
  403818:	48 8b 45 78          	mov    0x78(%rbp),%rax
  40381c:	48 8b 08             	mov    (%rax),%rcx
  40381f:	48 8b 55 e8          	mov    -0x18(%rbp),%rdx
  403823:	48 8b 45 68          	mov    0x68(%rbp),%rax
  403827:	48 8b 00             	mov    (%rax),%rax
  40382a:	4d 89 c1             	mov    %r8,%r9
  40382d:	49 89 c8             	mov    %rcx,%r8
  403830:	48 89 c1             	mov    %rax,%rcx
  403833:	e8 55 ea ff ff       	callq  40228d <bli_is_row_tilted>
  403838:	84 c0                	test   %al,%al
  40383a:	74 51                	je     40388d <bli_set_dims_incs_uplo_2m+0x1fc>
  40383c:	48 8b 55 68          	mov    0x68(%rbp),%rdx
  403840:	48 8d 45 e8          	lea    -0x18(%rbp),%rax
  403844:	48 89 c1             	mov    %rax,%rcx
  403847:	e8 4d e0 ff ff       	callq  401899 <bli_swap_dims>
  40384c:	48 8b 95 80 00 00 00 	mov    0x80(%rbp),%rdx
  403853:	48 8b 45 78          	mov    0x78(%rbp),%rax
  403857:	48 89 c1             	mov    %rax,%rcx
  40385a:	e8 75 e0 ff ff       	callq  4018d4 <bli_swap_incs>
  40385f:	48 8b 95 90 00 00 00 	mov    0x90(%rbp),%rdx
  403866:	48 8b 85 88 00 00 00 	mov    0x88(%rbp),%rax
  40386d:	48 89 c1             	mov    %rax,%rcx
  403870:	e8 5f e0 ff ff       	callq  4018d4 <bli_swap_incs>
  403875:	48 8b 45 60          	mov    0x60(%rbp),%rax
  403879:	48 89 c1             	mov    %rax,%rcx
  40387c:	e8 01 e5 ff ff       	callq  401d82 <bli_toggle_uplo>
  403881:	48 8d 45 f0          	lea    -0x10(%rbp),%rax
  403885:	48 89 c1             	mov    %rax,%rcx
  403888:	e8 6b eb ff ff       	callq  4023f8 <bli_negate_diag_offset>
  40388d:	48 8b 45 60          	mov    0x60(%rbp),%rax
  403891:	8b 00                	mov    (%rax),%eax
  403893:	89 c1                	mov    %eax,%ecx
  403895:	e8 9e e4 ff ff       	callq  401d38 <bli_is_dense>
  40389a:	84 c0                	test   %al,%al
  40389c:	74 10                	je     4038ae <bli_set_dims_incs_uplo_2m+0x21d>
  40389e:	48 8b 55 e8          	mov    -0x18(%rbp),%rdx
  4038a2:	48 8b 45 70          	mov    0x70(%rbp),%rax
  4038a6:	48 89 10             	mov    %rdx,(%rax)
  4038a9:	e9 5e 01 00 00       	jmpq   403a0c <bli_set_dims_incs_uplo_2m+0x37b>
  4038ae:	48 8b 45 60          	mov    0x60(%rbp),%rax
  4038b2:	8b 00                	mov    (%rax),%eax
  4038b4:	89 c1                	mov    %eax,%ecx
  4038b6:	e8 35 e4 ff ff       	callq  401cf0 <bli_is_upper>
  4038bb:	84 c0                	test   %al,%al
  4038bd:	0f 84 9d 00 00 00    	je     403960 <bli_set_dims_incs_uplo_2m+0x2cf>
  4038c3:	48 8b 45 f0          	mov    -0x10(%rbp),%rax
  4038c7:	48 85 c0             	test   %rax,%rax
  4038ca:	79 61                	jns    40392d <bli_set_dims_incs_uplo_2m+0x29c>
  4038cc:	48 8b 85 98 00 00 00 	mov    0x98(%rbp),%rax
  4038d3:	48 c7 00 00 00 00 00 	movq   $0x0,(%rax)
  4038da:	48 8b 45 f0          	mov    -0x10(%rbp),%rax
  4038de:	48 f7 d8             	neg    %rax
  4038e1:	48 89 c2             	mov    %rax,%rdx
  4038e4:	48 8b 85 a0 00 00 00 	mov    0xa0(%rbp),%rax
  4038eb:	48 89 10             	mov    %rdx,(%rax)
  4038ee:	48 8b 85 a0 00 00 00 	mov    0xa0(%rbp),%rax
  4038f5:	48 8b 10             	mov    (%rax),%rdx
  4038f8:	48 8b 45 30          	mov    0x30(%rbp),%rax
  4038fc:	48 39 45 38          	cmp    %rax,0x38(%rbp)
  403900:	48 0f 4e 45 38       	cmovle 0x38(%rbp),%rax
  403905:	48 01 c2             	add    %rax,%rdx
  403908:	48 8b 45 68          	mov    0x68(%rbp),%rax
  40390c:	48 8b 00             	mov    (%rax),%rax
  40390f:	48 39 c2             	cmp    %rax,%rdx
  403912:	48 0f 4e c2          	cmovle %rdx,%rax
  403916:	48 8b 55 68          	mov    0x68(%rbp),%rdx
  40391a:	48 89 02             	mov    %rax,(%rdx)
  40391d:	48 8b 55 e8          	mov    -0x18(%rbp),%rdx
  403921:	48 8b 45 70          	mov    0x70(%rbp),%rax
  403925:	48 89 10             	mov    %rdx,(%rax)
  403928:	e9 df 00 00 00       	jmpq   403a0c <bli_set_dims_incs_uplo_2m+0x37b>
  40392d:	48 8b 55 f0          	mov    -0x10(%rbp),%rdx
  403931:	48 8b 85 98 00 00 00 	mov    0x98(%rbp),%rax
  403938:	48 89 10             	mov    %rdx,(%rax)
  40393b:	48 8b 85 a0 00 00 00 	mov    0xa0(%rbp),%rax
  403942:	48 c7 00 00 00 00 00 	movq   $0x0,(%rax)
  403949:	48 8b 55 e8          	mov    -0x18(%rbp),%rdx
  40394d:	48 8b 45 f0          	mov    -0x10(%rbp),%rax
  403951:	48 29 c2             	sub    %rax,%rdx
  403954:	48 8b 45 70          	mov    0x70(%rbp),%rax
  403958:	48 89 10             	mov    %rdx,(%rax)
  40395b:	e9 ac 00 00 00       	jmpq   403a0c <bli_set_dims_incs_uplo_2m+0x37b>
  403960:	48 8b 45 f0          	mov    -0x10(%rbp),%rax
  403964:	48 85 c0             	test   %rax,%rax
  403967:	79 5b                	jns    4039c4 <bli_set_dims_incs_uplo_2m+0x333>
  403969:	48 8b 45 f0          	mov    -0x10(%rbp),%rax
  40396d:	48 f7 d8             	neg    %rax
  403970:	48 89 c2             	mov    %rax,%rdx
  403973:	48 8b 85 98 00 00 00 	mov    0x98(%rbp),%rax
  40397a:	48 89 10             	mov    %rdx,(%rax)
  40397d:	48 8b 85 a0 00 00 00 	mov    0xa0(%rbp),%rax
  403984:	48 c7 00 00 00 00 00 	movq   $0x0,(%rax)
  40398b:	48 8b 45 68          	mov    0x68(%rbp),%rax
  40398f:	48 8b 10             	mov    (%rax),%rdx
  403992:	48 8b 45 f0          	mov    -0x10(%rbp),%rax
  403996:	48 01 c2             	add    %rax,%rdx
  403999:	48 8b 45 68          	mov    0x68(%rbp),%rax
  40399d:	48 89 10             	mov    %rdx,(%rax)
  4039a0:	48 8b 45 30          	mov    0x30(%rbp),%rax
  4039a4:	48 39 45 38          	cmp    %rax,0x38(%rbp)
  4039a8:	48 0f 4e 45 38       	cmovle 0x38(%rbp),%rax
  4039ad:	48 8b 55 68          	mov    0x68(%rbp),%rdx
  4039b1:	48 8b 12             	mov    (%rdx),%rdx
  4039b4:	48 39 d0             	cmp    %rdx,%rax
  4039b7:	48 0f 4f c2          	cmovg  %rdx,%rax
  4039bb:	48 8b 55 70          	mov    0x70(%rbp),%rdx
  4039bf:	48 89 02             	mov    %rax,(%rdx)
  4039c2:	eb 48                	jmp    403a0c <bli_set_dims_incs_uplo_2m+0x37b>
  4039c4:	48 8b 85 98 00 00 00 	mov    0x98(%rbp),%rax
  4039cb:	48 c7 00 00 00 00 00 	movq   $0x0,(%rax)
  4039d2:	48 8b 55 f0          	mov    -0x10(%rbp),%rdx
  4039d6:	48 8b 85 a0 00 00 00 	mov    0xa0(%rbp),%rax
  4039dd:	48 89 10             	mov    %rdx,(%rax)
  4039e0:	48 8b 85 a0 00 00 00 	mov    0xa0(%rbp),%rax
  4039e7:	48 8b 10             	mov    (%rax),%rdx
  4039ea:	48 8b 45 30          	mov    0x30(%rbp),%rax
  4039ee:	48 39 45 38          	cmp    %rax,0x38(%rbp)
  4039f2:	48 0f 4e 45 38       	cmovle 0x38(%rbp),%rax
  4039f7:	48 01 c2             	add    %rax,%rdx
  4039fa:	48 8b 45 e8          	mov    -0x18(%rbp),%rax
  4039fe:	48 39 c2             	cmp    %rax,%rdx
  403a01:	48 0f 4e c2          	cmovle %rdx,%rax
  403a05:	48 8b 55 70          	mov    0x70(%rbp),%rdx
  403a09:	48 89 02             	mov    %rax,(%rdx)
  403a0c:	90                   	nop
  403a0d:	48 83 c4 50          	add    $0x50,%rsp
  403a11:	5d                   	pop    %rbp
  403a12:	c3                   	retq   

0000000000403a13 <bli_set_dims_incs_1d>:
  403a13:	55                   	push   %rbp
  403a14:	48 89 e5             	mov    %rsp,%rbp
  403a17:	48 89 4d 10          	mov    %rcx,0x10(%rbp)
  403a1b:	48 89 55 18          	mov    %rdx,0x18(%rbp)
  403a1f:	4c 89 45 20          	mov    %r8,0x20(%rbp)
  403a23:	4c 89 4d 28          	mov    %r9,0x28(%rbp)
  403a27:	48 83 7d 10 00       	cmpq   $0x0,0x10(%rbp)
  403a2c:	79 30                	jns    403a5e <bli_set_dims_incs_1d+0x4b>
  403a2e:	48 8b 55 18          	mov    0x18(%rbp),%rdx
  403a32:	48 8b 45 10          	mov    0x10(%rbp),%rax
  403a36:	48 01 d0             	add    %rdx,%rax
  403a39:	48 39 45 20          	cmp    %rax,0x20(%rbp)
  403a3d:	48 0f 4e 45 20       	cmovle 0x20(%rbp),%rax
  403a42:	48 8b 55 40          	mov    0x40(%rbp),%rdx
  403a46:	48 89 02             	mov    %rax,(%rdx)
  403a49:	48 8b 45 10          	mov    0x10(%rbp),%rax
  403a4d:	48 f7 d8             	neg    %rax
  403a50:	48 0f af 45 28       	imul   0x28(%rbp),%rax
  403a55:	48 8b 55 38          	mov    0x38(%rbp),%rdx
  403a59:	48 89 02             	mov    %rax,(%rdx)
  403a5c:	eb 28                	jmp    403a86 <bli_set_dims_incs_1d+0x73>
  403a5e:	48 8b 45 20          	mov    0x20(%rbp),%rax
  403a62:	48 2b 45 10          	sub    0x10(%rbp),%rax
  403a66:	48 39 45 18          	cmp    %rax,0x18(%rbp)
  403a6a:	48 0f 4e 45 18       	cmovle 0x18(%rbp),%rax
  403a6f:	48 8b 55 40          	mov    0x40(%rbp),%rdx
  403a73:	48 89 02             	mov    %rax,(%rdx)
  403a76:	48 8b 45 10          	mov    0x10(%rbp),%rax
  403a7a:	48 0f af 45 30       	imul   0x30(%rbp),%rax
  403a7f:	48 8b 55 38          	mov    0x38(%rbp),%rdx
  403a83:	48 89 02             	mov    %rax,(%rdx)
  403a86:	48 8b 55 28          	mov    0x28(%rbp),%rdx
  403a8a:	48 8b 45 30          	mov    0x30(%rbp),%rax
  403a8e:	48 01 c2             	add    %rax,%rdx
  403a91:	48 8b 45 48          	mov    0x48(%rbp),%rax
  403a95:	48 89 10             	mov    %rdx,(%rax)
  403a98:	90                   	nop
  403a99:	5d                   	pop    %rbp
  403a9a:	c3                   	retq   

0000000000403a9b <bli_set_dims_incs_2d>:
  403a9b:	55                   	push   %rbp
  403a9c:	48 89 e5             	mov    %rsp,%rbp
  403a9f:	48 83 ec 30          	sub    $0x30,%rsp
  403aa3:	48 89 4d 10          	mov    %rcx,0x10(%rbp)
  403aa7:	89 55 18             	mov    %edx,0x18(%rbp)
  403aaa:	4c 89 45 20          	mov    %r8,0x20(%rbp)
  403aae:	4c 89 4d 28          	mov    %r9,0x28(%rbp)
  403ab2:	8b 45 18             	mov    0x18(%rbp),%eax
  403ab5:	48 8b 55 10          	mov    0x10(%rbp),%rdx
  403ab9:	89 c1                	mov    %eax,%ecx
  403abb:	e8 ff e9 ff ff       	callq  4024bf <bli_diag_offset_with_trans>
  403ac0:	0f b6 c0             	movzbl %al,%eax
  403ac3:	48 89 45 f8          	mov    %rax,-0x8(%rbp)
  403ac7:	48 83 7d 10 00       	cmpq   $0x0,0x10(%rbp)
  403acc:	79 15                	jns    403ae3 <bli_set_dims_incs_2d+0x48>
  403ace:	48 8b 45 10          	mov    0x10(%rbp),%rax
  403ad2:	48 f7 d8             	neg    %rax
  403ad5:	48 0f af 45 30       	imul   0x30(%rbp),%rax
  403ada:	48 8b 55 50          	mov    0x50(%rbp),%rdx
  403ade:	48 89 02             	mov    %rax,(%rdx)
  403ae1:	eb 10                	jmp    403af3 <bli_set_dims_incs_2d+0x58>
  403ae3:	48 8b 45 10          	mov    0x10(%rbp),%rax
  403ae7:	48 0f af 45 38       	imul   0x38(%rbp),%rax
  403aec:	48 8b 55 50          	mov    0x50(%rbp),%rdx
  403af0:	48 89 02             	mov    %rax,(%rdx)
  403af3:	48 83 7d f8 00       	cmpq   $0x0,-0x8(%rbp)
  403af8:	79 30                	jns    403b2a <bli_set_dims_incs_2d+0x8f>
  403afa:	48 8b 55 20          	mov    0x20(%rbp),%rdx
  403afe:	48 8b 45 f8          	mov    -0x8(%rbp),%rax
  403b02:	48 01 d0             	add    %rdx,%rax
  403b05:	48 39 45 28          	cmp    %rax,0x28(%rbp)
  403b09:	48 0f 4e 45 28       	cmovle 0x28(%rbp),%rax
  403b0e:	48 8b 55 60          	mov    0x60(%rbp),%rdx
  403b12:	48 89 02             	mov    %rax,(%rdx)
  403b15:	48 8b 45 f8          	mov    -0x8(%rbp),%rax
  403b19:	48 f7 d8             	neg    %rax
  403b1c:	48 0f af 45 40       	imul   0x40(%rbp),%rax
  403b21:	48 8b 55 58          	mov    0x58(%rbp),%rdx
  403b25:	48 89 02             	mov    %rax,(%rdx)
  403b28:	eb 28                	jmp    403b52 <bli_set_dims_incs_2d+0xb7>
  403b2a:	48 8b 45 28          	mov    0x28(%rbp),%rax
  403b2e:	48 2b 45 f8          	sub    -0x8(%rbp),%rax
  403b32:	48 39 45 20          	cmp    %rax,0x20(%rbp)
  403b36:	48 0f 4e 45 20       	cmovle 0x20(%rbp),%rax
  403b3b:	48 8b 55 60          	mov    0x60(%rbp),%rdx
  403b3f:	48 89 02             	mov    %rax,(%rdx)
  403b42:	48 8b 45 f8          	mov    -0x8(%rbp),%rax
  403b46:	48 0f af 45 48       	imul   0x48(%rbp),%rax
  403b4b:	48 8b 55 58          	mov    0x58(%rbp),%rdx
  403b4f:	48 89 02             	mov    %rax,(%rdx)
  403b52:	48 8b 55 30          	mov    0x30(%rbp),%rdx
  403b56:	48 8b 45 38          	mov    0x38(%rbp),%rax
  403b5a:	48 01 c2             	add    %rax,%rdx
  403b5d:	48 8b 45 68          	mov    0x68(%rbp),%rax
  403b61:	48 89 10             	mov    %rdx,(%rax)
  403b64:	48 8b 55 40          	mov    0x40(%rbp),%rdx
  403b68:	48 8b 45 48          	mov    0x48(%rbp),%rax
  403b6c:	48 01 c2             	add    %rax,%rdx
  403b6f:	48 8b 45 70          	mov    0x70(%rbp),%rax
  403b73:	48 89 10             	mov    %rdx,(%rax)
  403b76:	90                   	nop
  403b77:	48 83 c4 30          	add    $0x30,%rsp
  403b7b:	5d                   	pop    %rbp
  403b7c:	c3                   	retq   

0000000000403b7d <bli_obj_dt>:
  403b7d:	55                   	push   %rbp
  403b7e:	48 89 e5             	mov    %rsp,%rbp
  403b81:	48 89 4d 10          	mov    %rcx,0x10(%rbp)
  403b85:	48 8b 45 10          	mov    0x10(%rbp),%rax
  403b89:	8b 40 30             	mov    0x30(%rax),%eax
  403b8c:	83 e0 07             	and    $0x7,%eax
  403b8f:	5d                   	pop    %rbp
  403b90:	c3                   	retq   

0000000000403b91 <bli_obj_is_float>:
  403b91:	55                   	push   %rbp
  403b92:	48 89 e5             	mov    %rsp,%rbp
  403b95:	48 83 ec 20          	sub    $0x20,%rsp
  403b99:	48 89 4d 10          	mov    %rcx,0x10(%rbp)
  403b9d:	48 8b 4d 10          	mov    0x10(%rbp),%rcx
  403ba1:	e8 d7 ff ff ff       	callq  403b7d <bli_obj_dt>
  403ba6:	85 c0                	test   %eax,%eax
  403ba8:	0f 94 c0             	sete   %al
  403bab:	48 83 c4 20          	add    $0x20,%rsp
  403baf:	5d                   	pop    %rbp
  403bb0:	c3                   	retq   

0000000000403bb1 <bli_obj_is_double>:
  403bb1:	55                   	push   %rbp
  403bb2:	48 89 e5             	mov    %rsp,%rbp
  403bb5:	48 83 ec 20          	sub    $0x20,%rsp
  403bb9:	48 89 4d 10          	mov    %rcx,0x10(%rbp)
  403bbd:	48 8b 4d 10          	mov    0x10(%rbp),%rcx
  403bc1:	e8 b7 ff ff ff       	callq  403b7d <bli_obj_dt>
  403bc6:	83 f8 02             	cmp    $0x2,%eax
  403bc9:	0f 94 c0             	sete   %al
  403bcc:	48 83 c4 20          	add    $0x20,%rsp
  403bd0:	5d                   	pop    %rbp
  403bd1:	c3                   	retq   

0000000000403bd2 <bli_obj_is_scomplex>:
  403bd2:	55                   	push   %rbp
  403bd3:	48 89 e5             	mov    %rsp,%rbp
  403bd6:	48 83 ec 20          	sub    $0x20,%rsp
  403bda:	48 89 4d 10          	mov    %rcx,0x10(%rbp)
  403bde:	48 8b 4d 10          	mov    0x10(%rbp),%rcx
  403be2:	e8 96 ff ff ff       	callq  403b7d <bli_obj_dt>
  403be7:	83 f8 01             	cmp    $0x1,%eax
  403bea:	0f 94 c0             	sete   %al
  403bed:	48 83 c4 20          	add    $0x20,%rsp
  403bf1:	5d                   	pop    %rbp
  403bf2:	c3                   	retq   

0000000000403bf3 <bli_obj_is_dcomplex>:
  403bf3:	55                   	push   %rbp
  403bf4:	48 89 e5             	mov    %rsp,%rbp
  403bf7:	48 83 ec 20          	sub    $0x20,%rsp
  403bfb:	48 89 4d 10          	mov    %rcx,0x10(%rbp)
  403bff:	48 8b 4d 10          	mov    0x10(%rbp),%rcx
  403c03:	e8 75 ff ff ff       	callq  403b7d <bli_obj_dt>
  403c08:	83 f8 03             	cmp    $0x3,%eax
  403c0b:	0f 94 c0             	sete   %al
  403c0e:	48 83 c4 20          	add    $0x20,%rsp
  403c12:	5d                   	pop    %rbp
  403c13:	c3                   	retq   

0000000000403c14 <bli_obj_is_int>:
  403c14:	55                   	push   %rbp
  403c15:	48 89 e5             	mov    %rsp,%rbp
  403c18:	48 83 ec 20          	sub    $0x20,%rsp
  403c1c:	48 89 4d 10          	mov    %rcx,0x10(%rbp)
  403c20:	48 8b 4d 10          	mov    0x10(%rbp),%rcx
  403c24:	e8 54 ff ff ff       	callq  403b7d <bli_obj_dt>
  403c29:	83 f8 04             	cmp    $0x4,%eax
  403c2c:	0f 94 c0             	sete   %al
  403c2f:	48 83 c4 20          	add    $0x20,%rsp
  403c33:	5d                   	pop    %rbp
  403c34:	c3                   	retq   

0000000000403c35 <bli_obj_is_const>:
  403c35:	55                   	push   %rbp
  403c36:	48 89 e5             	mov    %rsp,%rbp
  403c39:	48 83 ec 20          	sub    $0x20,%rsp
  403c3d:	48 89 4d 10          	mov    %rcx,0x10(%rbp)
  403c41:	48 8b 4d 10          	mov    0x10(%rbp),%rcx
  403c45:	e8 33 ff ff ff       	callq  403b7d <bli_obj_dt>
  403c4a:	83 f8 05             	cmp    $0x5,%eax
  403c4d:	0f 94 c0             	sete   %al
  403c50:	48 83 c4 20          	add    $0x20,%rsp
  403c54:	5d                   	pop    %rbp
  403c55:	c3                   	retq   

0000000000403c56 <bli_obj_domain>:
  403c56:	55                   	push   %rbp
  403c57:	48 89 e5             	mov    %rsp,%rbp
  403c5a:	48 89 4d 10          	mov    %rcx,0x10(%rbp)
  403c5e:	48 8b 45 10          	mov    0x10(%rbp),%rax
  403c62:	8b 40 30             	mov    0x30(%rax),%eax
  403c65:	83 e0 01             	and    $0x1,%eax
  403c68:	5d                   	pop    %rbp
  403c69:	c3                   	retq   

0000000000403c6a <bli_obj_prec>:
  403c6a:	55                   	push   %rbp
  403c6b:	48 89 e5             	mov    %rsp,%rbp
  403c6e:	48 89 4d 10          	mov    %rcx,0x10(%rbp)
  403c72:	48 8b 45 10          	mov    0x10(%rbp),%rax
  403c76:	8b 40 30             	mov    0x30(%rax),%eax
  403c79:	83 e0 02             	and    $0x2,%eax
  403c7c:	5d                   	pop    %rbp
  403c7d:	c3                   	retq   

0000000000403c7e <bli_obj_is_single_prec>:
  403c7e:	55                   	push   %rbp
  403c7f:	48 89 e5             	mov    %rsp,%rbp
  403c82:	48 83 ec 20          	sub    $0x20,%rsp
  403c86:	48 89 4d 10          	mov    %rcx,0x10(%rbp)
  403c8a:	48 8b 4d 10          	mov    0x10(%rbp),%rcx
  403c8e:	e8 d7 ff ff ff       	callq  403c6a <bli_obj_prec>
  403c93:	85 c0                	test   %eax,%eax
  403c95:	0f 94 c0             	sete   %al
  403c98:	48 83 c4 20          	add    $0x20,%rsp
  403c9c:	5d                   	pop    %rbp
  403c9d:	c3                   	retq   

0000000000403c9e <bli_obj_is_double_prec>:
  403c9e:	55                   	push   %rbp
  403c9f:	48 89 e5             	mov    %rsp,%rbp
  403ca2:	48 83 ec 20          	sub    $0x20,%rsp
  403ca6:	48 89 4d 10          	mov    %rcx,0x10(%rbp)
  403caa:	48 8b 4d 10          	mov    0x10(%rbp),%rcx
  403cae:	e8 b7 ff ff ff       	callq  403c6a <bli_obj_prec>
  403cb3:	83 f8 02             	cmp    $0x2,%eax
  403cb6:	0f 94 c0             	sete   %al
  403cb9:	48 83 c4 20          	add    $0x20,%rsp
  403cbd:	5d                   	pop    %rbp
  403cbe:	c3                   	retq   

0000000000403cbf <bli_obj_dt_proj_to_single_prec>:
  403cbf:	55                   	push   %rbp
  403cc0:	48 89 e5             	mov    %rsp,%rbp
  403cc3:	48 83 ec 20          	sub    $0x20,%rsp
  403cc7:	48 89 4d 10          	mov    %rcx,0x10(%rbp)
  403ccb:	48 8b 4d 10          	mov    0x10(%rbp),%rcx
  403ccf:	e8 a9 fe ff ff       	callq  403b7d <bli_obj_dt>
  403cd4:	48 83 c4 20          	add    $0x20,%rsp
  403cd8:	5d                   	pop    %rbp
  403cd9:	c3                   	retq   

0000000000403cda <bli_obj_dt_proj_to_double_prec>:
  403cda:	55                   	push   %rbp
  403cdb:	48 89 e5             	mov    %rsp,%rbp
  403cde:	48 83 ec 20          	sub    $0x20,%rsp
  403ce2:	48 89 4d 10          	mov    %rcx,0x10(%rbp)
  403ce6:	48 8b 4d 10          	mov    0x10(%rbp),%rcx
  403cea:	e8 8e fe ff ff       	callq  403b7d <bli_obj_dt>
  403cef:	83 c8 02             	or     $0x2,%eax
  403cf2:	48 83 c4 20          	add    $0x20,%rsp
  403cf6:	5d                   	pop    %rbp
  403cf7:	c3                   	retq   

0000000000403cf8 <bli_obj_is_real>:
  403cf8:	55                   	push   %rbp
  403cf9:	48 89 e5             	mov    %rsp,%rbp
  403cfc:	48 83 ec 20          	sub    $0x20,%rsp
  403d00:	48 89 4d 10          	mov    %rcx,0x10(%rbp)
  403d04:	48 8b 4d 10          	mov    0x10(%rbp),%rcx
  403d08:	e8 49 ff ff ff       	callq  403c56 <bli_obj_domain>
  403d0d:	85 c0                	test   %eax,%eax
  403d0f:	75 17                	jne    403d28 <bli_obj_is_real+0x30>
  403d11:	48 8b 4d 10          	mov    0x10(%rbp),%rcx
  403d15:	e8 1b ff ff ff       	callq  403c35 <bli_obj_is_const>
  403d1a:	83 f0 01             	xor    $0x1,%eax
  403d1d:	84 c0                	test   %al,%al
  403d1f:	74 07                	je     403d28 <bli_obj_is_real+0x30>
  403d21:	b8 01 00 00 00       	mov    $0x1,%eax
  403d26:	eb 05                	jmp    403d2d <bli_obj_is_real+0x35>
  403d28:	b8 00 00 00 00       	mov    $0x0,%eax
  403d2d:	83 e0 01             	and    $0x1,%eax
  403d30:	48 83 c4 20          	add    $0x20,%rsp
  403d34:	5d                   	pop    %rbp
  403d35:	c3                   	retq   

0000000000403d36 <bli_obj_is_complex>:
  403d36:	55                   	push   %rbp
  403d37:	48 89 e5             	mov    %rsp,%rbp
  403d3a:	48 83 ec 20          	sub    $0x20,%rsp
  403d3e:	48 89 4d 10          	mov    %rcx,0x10(%rbp)
  403d42:	48 8b 4d 10          	mov    0x10(%rbp),%rcx
  403d46:	e8 0b ff ff ff       	callq  403c56 <bli_obj_domain>
  403d4b:	83 f8 01             	cmp    $0x1,%eax
  403d4e:	75 17                	jne    403d67 <bli_obj_is_complex+0x31>
  403d50:	48 8b 4d 10          	mov    0x10(%rbp),%rcx
  403d54:	e8 dc fe ff ff       	callq  403c35 <bli_obj_is_const>
  403d59:	83 f0 01             	xor    $0x1,%eax
  403d5c:	84 c0                	test   %al,%al
  403d5e:	74 07                	je     403d67 <bli_obj_is_complex+0x31>
  403d60:	b8 01 00 00 00       	mov    $0x1,%eax
  403d65:	eb 05                	jmp    403d6c <bli_obj_is_complex+0x36>
  403d67:	b8 00 00 00 00       	mov    $0x0,%eax
  403d6c:	83 e0 01             	and    $0x1,%eax
  403d6f:	48 83 c4 20          	add    $0x20,%rsp
  403d73:	5d                   	pop    %rbp
  403d74:	c3                   	retq   

0000000000403d75 <bli_obj_dt_proj_to_real>:
  403d75:	55                   	push   %rbp
  403d76:	48 89 e5             	mov    %rsp,%rbp
  403d79:	48 83 ec 20          	sub    $0x20,%rsp
  403d7d:	48 89 4d 10          	mov    %rcx,0x10(%rbp)
  403d81:	48 8b 4d 10          	mov    0x10(%rbp),%rcx
  403d85:	e8 f3 fd ff ff       	callq  403b7d <bli_obj_dt>
  403d8a:	83 e0 fe             	and    $0xfffffffe,%eax
  403d8d:	48 83 c4 20          	add    $0x20,%rsp
  403d91:	5d                   	pop    %rbp
  403d92:	c3                   	retq   

0000000000403d93 <bli_obj_dt_proj_to_complex>:
  403d93:	55                   	push   %rbp
  403d94:	48 89 e5             	mov    %rsp,%rbp
  403d97:	48 83 ec 20          	sub    $0x20,%rsp
  403d9b:	48 89 4d 10          	mov    %rcx,0x10(%rbp)
  403d9f:	48 8b 4d 10          	mov    0x10(%rbp),%rcx
  403da3:	e8 d5 fd ff ff       	callq  403b7d <bli_obj_dt>
  403da8:	83 c8 01             	or     $0x1,%eax
  403dab:	48 83 c4 20          	add    $0x20,%rsp
  403daf:	5d                   	pop    %rbp
  403db0:	c3                   	retq   

0000000000403db1 <bli_obj_target_dt>:
  403db1:	55                   	push   %rbp
  403db2:	48 89 e5             	mov    %rsp,%rbp
  403db5:	48 89 4d 10          	mov    %rcx,0x10(%rbp)
  403db9:	48 8b 45 10          	mov    0x10(%rbp),%rax
  403dbd:	8b 40 30             	mov    0x30(%rax),%eax
  403dc0:	c1 e8 0a             	shr    $0xa,%eax
  403dc3:	83 e0 07             	and    $0x7,%eax
  403dc6:	5d                   	pop    %rbp
  403dc7:	c3                   	retq   

0000000000403dc8 <bli_obj_target_domain>:
  403dc8:	55                   	push   %rbp
  403dc9:	48 89 e5             	mov    %rsp,%rbp
  403dcc:	48 89 4d 10          	mov    %rcx,0x10(%rbp)
  403dd0:	48 8b 45 10          	mov    0x10(%rbp),%rax
  403dd4:	8b 40 30             	mov    0x30(%rax),%eax
  403dd7:	c1 e8 0a             	shr    $0xa,%eax
  403dda:	83 e0 01             	and    $0x1,%eax
  403ddd:	5d                   	pop    %rbp
  403dde:	c3                   	retq   

0000000000403ddf <bli_obj_target_prec>:
  403ddf:	55                   	push   %rbp
  403de0:	48 89 e5             	mov    %rsp,%rbp
  403de3:	48 89 4d 10          	mov    %rcx,0x10(%rbp)
  403de7:	48 8b 45 10          	mov    0x10(%rbp),%rax
  403deb:	8b 40 30             	mov    0x30(%rax),%eax
  403dee:	c1 e8 0a             	shr    $0xa,%eax
  403df1:	83 e0 02             	and    $0x2,%eax
  403df4:	5d                   	pop    %rbp
  403df5:	c3                   	retq   

0000000000403df6 <bli_obj_exec_dt>:
  403df6:	55                   	push   %rbp
  403df7:	48 89 e5             	mov    %rsp,%rbp
  403dfa:	48 89 4d 10          	mov    %rcx,0x10(%rbp)
  403dfe:	48 8b 45 10          	mov    0x10(%rbp),%rax
  403e02:	8b 40 30             	mov    0x30(%rax),%eax
  403e05:	c1 e8 0d             	shr    $0xd,%eax
  403e08:	83 e0 07             	and    $0x7,%eax
  403e0b:	5d                   	pop    %rbp
  403e0c:	c3                   	retq   

0000000000403e0d <bli_obj_exec_domain>:
  403e0d:	55                   	push   %rbp
  403e0e:	48 89 e5             	mov    %rsp,%rbp
  403e11:	48 89 4d 10          	mov    %rcx,0x10(%rbp)
  403e15:	48 8b 45 10          	mov    0x10(%rbp),%rax
  403e19:	8b 40 30             	mov    0x30(%rax),%eax
  403e1c:	c1 e8 0d             	shr    $0xd,%eax
  403e1f:	83 e0 01             	and    $0x1,%eax
  403e22:	5d                   	pop    %rbp
  403e23:	c3                   	retq   

0000000000403e24 <bli_obj_exec_prec>:
  403e24:	55                   	push   %rbp
  403e25:	48 89 e5             	mov    %rsp,%rbp
  403e28:	48 89 4d 10          	mov    %rcx,0x10(%rbp)
  403e2c:	48 8b 45 10          	mov    0x10(%rbp),%rax
  403e30:	8b 40 30             	mov    0x30(%rax),%eax
  403e33:	c1 e8 0d             	shr    $0xd,%eax
  403e36:	83 e0 02             	and    $0x2,%eax
  403e39:	5d                   	pop    %rbp
  403e3a:	c3                   	retq   

0000000000403e3b <bli_obj_comp_dt>:
  403e3b:	55                   	push   %rbp
  403e3c:	48 89 e5             	mov    %rsp,%rbp
  403e3f:	48 89 4d 10          	mov    %rcx,0x10(%rbp)
  403e43:	48 8b 45 10          	mov    0x10(%rbp),%rax
  403e47:	8b 40 30             	mov    0x30(%rax),%eax
  403e4a:	c1 e8 1d             	shr    $0x1d,%eax
  403e4d:	5d                   	pop    %rbp
  403e4e:	c3                   	retq   

0000000000403e4f <bli_obj_comp_domain>:
  403e4f:	55                   	push   %rbp
  403e50:	48 89 e5             	mov    %rsp,%rbp
  403e53:	48 89 4d 10          	mov    %rcx,0x10(%rbp)
  403e57:	48 8b 45 10          	mov    0x10(%rbp),%rax
  403e5b:	8b 40 30             	mov    0x30(%rax),%eax
  403e5e:	c1 e8 1d             	shr    $0x1d,%eax
  403e61:	83 e0 01             	and    $0x1,%eax
  403e64:	5d                   	pop    %rbp
  403e65:	c3                   	retq   

0000000000403e66 <bli_obj_comp_prec>:
  403e66:	55                   	push   %rbp
  403e67:	48 89 e5             	mov    %rsp,%rbp
  403e6a:	48 89 4d 10          	mov    %rcx,0x10(%rbp)
  403e6e:	48 8b 45 10          	mov    0x10(%rbp),%rax
  403e72:	8b 40 30             	mov    0x30(%rax),%eax
  403e75:	c1 e8 1d             	shr    $0x1d,%eax
  403e78:	83 e0 02             	and    $0x2,%eax
  403e7b:	5d                   	pop    %rbp
  403e7c:	c3                   	retq   

0000000000403e7d <bli_obj_scalar_dt>:
  403e7d:	55                   	push   %rbp
  403e7e:	48 89 e5             	mov    %rsp,%rbp
  403e81:	48 89 4d 10          	mov    %rcx,0x10(%rbp)
  403e85:	48 8b 45 10          	mov    0x10(%rbp),%rax
  403e89:	8b 40 34             	mov    0x34(%rax),%eax
  403e8c:	83 e0 07             	and    $0x7,%eax
  403e8f:	5d                   	pop    %rbp
  403e90:	c3                   	retq   

0000000000403e91 <bli_obj_scalar_domain>:
  403e91:	55                   	push   %rbp
  403e92:	48 89 e5             	mov    %rsp,%rbp
  403e95:	48 89 4d 10          	mov    %rcx,0x10(%rbp)
  403e99:	48 8b 45 10          	mov    0x10(%rbp),%rax
  403e9d:	8b 40 34             	mov    0x34(%rax),%eax
  403ea0:	83 e0 01             	and    $0x1,%eax
  403ea3:	5d                   	pop    %rbp
  403ea4:	c3                   	retq   

0000000000403ea5 <bli_obj_scalar_prec>:
  403ea5:	55                   	push   %rbp
  403ea6:	48 89 e5             	mov    %rsp,%rbp
  403ea9:	48 89 4d 10          	mov    %rcx,0x10(%rbp)
  403ead:	48 8b 45 10          	mov    0x10(%rbp),%rax
  403eb1:	8b 40 34             	mov    0x34(%rax),%eax
  403eb4:	83 e0 02             	and    $0x2,%eax
  403eb7:	5d                   	pop    %rbp
  403eb8:	c3                   	retq   

0000000000403eb9 <bli_obj_conjtrans_status>:
  403eb9:	55                   	push   %rbp
  403eba:	48 89 e5             	mov    %rsp,%rbp
  403ebd:	48 89 4d 10          	mov    %rcx,0x10(%rbp)
  403ec1:	48 8b 45 10          	mov    0x10(%rbp),%rax
  403ec5:	8b 40 30             	mov    0x30(%rax),%eax
  403ec8:	83 e0 18             	and    $0x18,%eax
  403ecb:	5d                   	pop    %rbp
  403ecc:	c3                   	retq   

0000000000403ecd <bli_obj_onlytrans_status>:
  403ecd:	55                   	push   %rbp
  403ece:	48 89 e5             	mov    %rsp,%rbp
  403ed1:	48 89 4d 10          	mov    %rcx,0x10(%rbp)
  403ed5:	48 8b 45 10          	mov    0x10(%rbp),%rax
  403ed9:	8b 40 30             	mov    0x30(%rax),%eax
  403edc:	83 e0 08             	and    $0x8,%eax
  403edf:	5d                   	pop    %rbp
  403ee0:	c3                   	retq   

0000000000403ee1 <bli_obj_has_trans>:
  403ee1:	55                   	push   %rbp
  403ee2:	48 89 e5             	mov    %rsp,%rbp
  403ee5:	48 83 ec 20          	sub    $0x20,%rsp
  403ee9:	48 89 4d 10          	mov    %rcx,0x10(%rbp)
  403eed:	48 8b 4d 10          	mov    0x10(%rbp),%rcx
  403ef1:	e8 d7 ff ff ff       	callq  403ecd <bli_obj_onlytrans_status>
  403ef6:	83 f8 08             	cmp    $0x8,%eax
  403ef9:	0f 94 c0             	sete   %al
  403efc:	48 83 c4 20          	add    $0x20,%rsp
  403f00:	5d                   	pop    %rbp
  403f01:	c3                   	retq   

0000000000403f02 <bli_obj_has_notrans>:
  403f02:	55                   	push   %rbp
  403f03:	48 89 e5             	mov    %rsp,%rbp
  403f06:	48 83 ec 20          	sub    $0x20,%rsp
  403f0a:	48 89 4d 10          	mov    %rcx,0x10(%rbp)
  403f0e:	48 8b 4d 10          	mov    0x10(%rbp),%rcx
  403f12:	e8 b6 ff ff ff       	callq  403ecd <bli_obj_onlytrans_status>
  403f17:	85 c0                	test   %eax,%eax
  403f19:	0f 94 c0             	sete   %al
  403f1c:	48 83 c4 20          	add    $0x20,%rsp
  403f20:	5d                   	pop    %rbp
  403f21:	c3                   	retq   

0000000000403f22 <bli_obj_conj_status>:
  403f22:	55                   	push   %rbp
  403f23:	48 89 e5             	mov    %rsp,%rbp
  403f26:	48 89 4d 10          	mov    %rcx,0x10(%rbp)
  403f2a:	48 8b 45 10          	mov    0x10(%rbp),%rax
  403f2e:	8b 40 30             	mov    0x30(%rax),%eax
  403f31:	83 e0 10             	and    $0x10,%eax
  403f34:	5d                   	pop    %rbp
  403f35:	c3                   	retq   

0000000000403f36 <bli_obj_has_conj>:
  403f36:	55                   	push   %rbp
  403f37:	48 89 e5             	mov    %rsp,%rbp
  403f3a:	48 83 ec 20          	sub    $0x20,%rsp
  403f3e:	48 89 4d 10          	mov    %rcx,0x10(%rbp)
  403f42:	48 8b 4d 10          	mov    0x10(%rbp),%rcx
  403f46:	e8 d7 ff ff ff       	callq  403f22 <bli_obj_conj_status>
  403f4b:	83 f8 10             	cmp    $0x10,%eax
  403f4e:	0f 94 c0             	sete   %al
  403f51:	48 83 c4 20          	add    $0x20,%rsp
  403f55:	5d                   	pop    %rbp
  403f56:	c3                   	retq   

0000000000403f57 <bli_obj_has_noconj>:
  403f57:	55                   	push   %rbp
  403f58:	48 89 e5             	mov    %rsp,%rbp
  403f5b:	48 83 ec 20          	sub    $0x20,%rsp
  403f5f:	48 89 4d 10          	mov    %rcx,0x10(%rbp)
  403f63:	48 8b 4d 10          	mov    0x10(%rbp),%rcx
  403f67:	e8 b6 ff ff ff       	callq  403f22 <bli_obj_conj_status>
  403f6c:	85 c0                	test   %eax,%eax
  403f6e:	0f 94 c0             	sete   %al
  403f71:	48 83 c4 20          	add    $0x20,%rsp
  403f75:	5d                   	pop    %rbp
  403f76:	c3                   	retq   

0000000000403f77 <bli_obj_uplo>:
  403f77:	55                   	push   %rbp
  403f78:	48 89 e5             	mov    %rsp,%rbp
  403f7b:	48 89 4d 10          	mov    %rcx,0x10(%rbp)
  403f7f:	48 8b 45 10          	mov    0x10(%rbp),%rax
  403f83:	8b 40 30             	mov    0x30(%rax),%eax
  403f86:	25 e0 00 00 00       	and    $0xe0,%eax
  403f8b:	5d                   	pop    %rbp
  403f8c:	c3                   	retq   

0000000000403f8d <bli_obj_is_upper>:
  403f8d:	55                   	push   %rbp
  403f8e:	48 89 e5             	mov    %rsp,%rbp
  403f91:	48 83 ec 20          	sub    $0x20,%rsp
  403f95:	48 89 4d 10          	mov    %rcx,0x10(%rbp)
  403f99:	48 8b 4d 10          	mov    0x10(%rbp),%rcx
  403f9d:	e8 d5 ff ff ff       	callq  403f77 <bli_obj_uplo>
  403fa2:	83 f8 60             	cmp    $0x60,%eax
  403fa5:	0f 94 c0             	sete   %al
  403fa8:	48 83 c4 20          	add    $0x20,%rsp
  403fac:	5d                   	pop    %rbp
  403fad:	c3                   	retq   

0000000000403fae <bli_obj_is_lower>:
  403fae:	55                   	push   %rbp
  403faf:	48 89 e5             	mov    %rsp,%rbp
  403fb2:	48 83 ec 20          	sub    $0x20,%rsp
  403fb6:	48 89 4d 10          	mov    %rcx,0x10(%rbp)
  403fba:	48 8b 4d 10          	mov    0x10(%rbp),%rcx
  403fbe:	e8 b4 ff ff ff       	callq  403f77 <bli_obj_uplo>
  403fc3:	3d c0 00 00 00       	cmp    $0xc0,%eax
  403fc8:	0f 94 c0             	sete   %al
  403fcb:	48 83 c4 20          	add    $0x20,%rsp
  403fcf:	5d                   	pop    %rbp
  403fd0:	c3                   	retq   

0000000000403fd1 <bli_obj_is_upper_or_lower>:
  403fd1:	55                   	push   %rbp
  403fd2:	48 89 e5             	mov    %rsp,%rbp
  403fd5:	48 83 ec 20          	sub    $0x20,%rsp
  403fd9:	48 89 4d 10          	mov    %rcx,0x10(%rbp)
  403fdd:	48 8b 4d 10          	mov    0x10(%rbp),%rcx
  403fe1:	e8 a7 ff ff ff       	callq  403f8d <bli_obj_is_upper>
  403fe6:	84 c0                	test   %al,%al
  403fe8:	75 0d                	jne    403ff7 <bli_obj_is_upper_or_lower+0x26>
  403fea:	48 8b 4d 10          	mov    0x10(%rbp),%rcx
  403fee:	e8 bb ff ff ff       	callq  403fae <bli_obj_is_lower>
  403ff3:	84 c0                	test   %al,%al
  403ff5:	74 07                	je     403ffe <bli_obj_is_upper_or_lower+0x2d>
  403ff7:	b8 01 00 00 00       	mov    $0x1,%eax
  403ffc:	eb 05                	jmp    404003 <bli_obj_is_upper_or_lower+0x32>
  403ffe:	b8 00 00 00 00       	mov    $0x0,%eax
  404003:	83 e0 01             	and    $0x1,%eax
  404006:	48 83 c4 20          	add    $0x20,%rsp
  40400a:	5d                   	pop    %rbp
  40400b:	c3                   	retq   

000000000040400c <bli_obj_is_dense>:
  40400c:	55                   	push   %rbp
  40400d:	48 89 e5             	mov    %rsp,%rbp
  404010:	48 83 ec 20          	sub    $0x20,%rsp
  404014:	48 89 4d 10          	mov    %rcx,0x10(%rbp)
  404018:	48 8b 4d 10          	mov    0x10(%rbp),%rcx
  40401c:	e8 56 ff ff ff       	callq  403f77 <bli_obj_uplo>
  404021:	3d e0 00 00 00       	cmp    $0xe0,%eax
  404026:	0f 94 c0             	sete   %al
  404029:	48 83 c4 20          	add    $0x20,%rsp
  40402d:	5d                   	pop    %rbp
  40402e:	c3                   	retq   

000000000040402f <bli_obj_is_zeros>:
  40402f:	55                   	push   %rbp
  404030:	48 89 e5             	mov    %rsp,%rbp
  404033:	48 83 ec 20          	sub    $0x20,%rsp
  404037:	48 89 4d 10          	mov    %rcx,0x10(%rbp)
  40403b:	48 8b 4d 10          	mov    0x10(%rbp),%rcx
  40403f:	e8 33 ff ff ff       	callq  403f77 <bli_obj_uplo>
  404044:	85 c0                	test   %eax,%eax
  404046:	0f 94 c0             	sete   %al
  404049:	48 83 c4 20          	add    $0x20,%rsp
  40404d:	5d                   	pop    %rbp
  40404e:	c3                   	retq   

000000000040404f <bli_obj_diag>:
  40404f:	55                   	push   %rbp
  404050:	48 89 e5             	mov    %rsp,%rbp
  404053:	48 89 4d 10          	mov    %rcx,0x10(%rbp)
  404057:	48 8b 45 10          	mov    0x10(%rbp),%rax
  40405b:	8b 40 30             	mov    0x30(%rax),%eax
  40405e:	25 00 01 00 00       	and    $0x100,%eax
  404063:	5d                   	pop    %rbp
  404064:	c3                   	retq   

0000000000404065 <bli_obj_has_nonunit_diag>:
  404065:	55                   	push   %rbp
  404066:	48 89 e5             	mov    %rsp,%rbp
  404069:	48 83 ec 20          	sub    $0x20,%rsp
  40406d:	48 89 4d 10          	mov    %rcx,0x10(%rbp)
  404071:	48 8b 4d 10          	mov    0x10(%rbp),%rcx
  404075:	e8 d5 ff ff ff       	callq  40404f <bli_obj_diag>
  40407a:	85 c0                	test   %eax,%eax
  40407c:	0f 94 c0             	sete   %al
  40407f:	48 83 c4 20          	add    $0x20,%rsp
  404083:	5d                   	pop    %rbp
  404084:	c3                   	retq   

0000000000404085 <bli_obj_has_unit_diag>:
  404085:	55                   	push   %rbp
  404086:	48 89 e5             	mov    %rsp,%rbp
  404089:	48 83 ec 20          	sub    $0x20,%rsp
  40408d:	48 89 4d 10          	mov    %rcx,0x10(%rbp)
  404091:	48 8b 4d 10          	mov    0x10(%rbp),%rcx
  404095:	e8 b5 ff ff ff       	callq  40404f <bli_obj_diag>
  40409a:	3d 00 01 00 00       	cmp    $0x100,%eax
  40409f:	0f 94 c0             	sete   %al
  4040a2:	48 83 c4 20          	add    $0x20,%rsp
  4040a6:	5d                   	pop    %rbp
  4040a7:	c3                   	retq   

00000000004040a8 <bli_obj_has_inverted_diag>:
  4040a8:	55                   	push   %rbp
  4040a9:	48 89 e5             	mov    %rsp,%rbp
  4040ac:	48 89 4d 10          	mov    %rcx,0x10(%rbp)
  4040b0:	48 8b 45 10          	mov    0x10(%rbp),%rax
  4040b4:	8b 40 30             	mov    0x30(%rax),%eax
  4040b7:	25 00 02 00 00       	and    $0x200,%eax
  4040bc:	85 c0                	test   %eax,%eax
  4040be:	0f 95 c0             	setne  %al
  4040c1:	5d                   	pop    %rbp
  4040c2:	c3                   	retq   

00000000004040c3 <bli_obj_is_pack_rev_if_upper>:
  4040c3:	55                   	push   %rbp
  4040c4:	48 89 e5             	mov    %rsp,%rbp
  4040c7:	48 89 4d 10          	mov    %rcx,0x10(%rbp)
  4040cb:	48 8b 45 10          	mov    0x10(%rbp),%rax
  4040cf:	8b 40 30             	mov    0x30(%rax),%eax
  4040d2:	25 00 00 80 00       	and    $0x800000,%eax
  4040d7:	85 c0                	test   %eax,%eax
  4040d9:	0f 95 c0             	setne  %al
  4040dc:	5d                   	pop    %rbp
  4040dd:	c3                   	retq   

00000000004040de <bli_obj_is_pack_rev_if_lower>:
  4040de:	55                   	push   %rbp
  4040df:	48 89 e5             	mov    %rsp,%rbp
  4040e2:	48 89 4d 10          	mov    %rcx,0x10(%rbp)
  4040e6:	48 8b 45 10          	mov    0x10(%rbp),%rax
  4040ea:	8b 40 30             	mov    0x30(%rax),%eax
  4040ed:	25 00 00 00 01       	and    $0x1000000,%eax
  4040f2:	85 c0                	test   %eax,%eax
  4040f4:	0f 95 c0             	setne  %al
  4040f7:	5d                   	pop    %rbp
  4040f8:	c3                   	retq   

00000000004040f9 <bli_obj_pack_schema>:
  4040f9:	55                   	push   %rbp
  4040fa:	48 89 e5             	mov    %rsp,%rbp
  4040fd:	48 89 4d 10          	mov    %rcx,0x10(%rbp)
  404101:	48 8b 45 10          	mov    0x10(%rbp),%rax
  404105:	8b 40 30             	mov    0x30(%rax),%eax
  404108:	25 00 00 7f 00       	and    $0x7f0000,%eax
  40410d:	5d                   	pop    %rbp
  40410e:	c3                   	retq   

000000000040410f <bli_obj_is_packed>:
  40410f:	55                   	push   %rbp
  404110:	48 89 e5             	mov    %rsp,%rbp
  404113:	48 89 4d 10          	mov    %rcx,0x10(%rbp)
  404117:	48 8b 45 10          	mov    0x10(%rbp),%rax
  40411b:	8b 40 30             	mov    0x30(%rax),%eax
  40411e:	25 00 00 40 00       	and    $0x400000,%eax
  404123:	85 c0                	test   %eax,%eax
  404125:	0f 95 c0             	setne  %al
  404128:	5d                   	pop    %rbp
  404129:	c3                   	retq   

000000000040412a <bli_obj_is_row_packed>:
  40412a:	55                   	push   %rbp
  40412b:	48 89 e5             	mov    %rsp,%rbp
  40412e:	48 89 4d 10          	mov    %rcx,0x10(%rbp)
  404132:	48 8b 45 10          	mov    0x10(%rbp),%rax
  404136:	8b 40 30             	mov    0x30(%rax),%eax
  404139:	25 00 00 01 00       	and    $0x10000,%eax
  40413e:	85 c0                	test   %eax,%eax
  404140:	0f 94 c0             	sete   %al
  404143:	5d                   	pop    %rbp
  404144:	c3                   	retq   

0000000000404145 <bli_obj_is_col_packed>:
  404145:	55                   	push   %rbp
  404146:	48 89 e5             	mov    %rsp,%rbp
  404149:	48 89 4d 10          	mov    %rcx,0x10(%rbp)
  40414d:	48 8b 45 10          	mov    0x10(%rbp),%rax
  404151:	8b 40 30             	mov    0x30(%rax),%eax
  404154:	25 00 00 01 00       	and    $0x10000,%eax
  404159:	85 c0                	test   %eax,%eax
  40415b:	0f 95 c0             	setne  %al
  40415e:	5d                   	pop    %rbp
  40415f:	c3                   	retq   

0000000000404160 <bli_obj_is_panel_packed>:
  404160:	55                   	push   %rbp
  404161:	48 89 e5             	mov    %rsp,%rbp
  404164:	48 89 4d 10          	mov    %rcx,0x10(%rbp)
  404168:	48 8b 45 10          	mov    0x10(%rbp),%rax
  40416c:	8b 40 30             	mov    0x30(%rax),%eax
  40416f:	25 00 00 02 00       	and    $0x20000,%eax
  404174:	85 c0                	test   %eax,%eax
  404176:	0f 95 c0             	setne  %al
  404179:	5d                   	pop    %rbp
  40417a:	c3                   	retq   

000000000040417b <bli_obj_pack_buffer_type>:
  40417b:	55                   	push   %rbp
  40417c:	48 89 e5             	mov    %rsp,%rbp
  40417f:	48 89 4d 10          	mov    %rcx,0x10(%rbp)
  404183:	48 8b 45 10          	mov    0x10(%rbp),%rax
  404187:	8b 40 30             	mov    0x30(%rax),%eax
  40418a:	25 00 00 00 06       	and    $0x6000000,%eax
  40418f:	5d                   	pop    %rbp
  404190:	c3                   	retq   

0000000000404191 <bli_obj_struc>:
  404191:	55                   	push   %rbp
  404192:	48 89 e5             	mov    %rsp,%rbp
  404195:	48 89 4d 10          	mov    %rcx,0x10(%rbp)
  404199:	48 8b 45 10          	mov    0x10(%rbp),%rax
  40419d:	8b 40 30             	mov    0x30(%rax),%eax
  4041a0:	25 00 00 00 18       	and    $0x18000000,%eax
  4041a5:	5d                   	pop    %rbp
  4041a6:	c3                   	retq   

00000000004041a7 <bli_obj_is_general>:
  4041a7:	55                   	push   %rbp
  4041a8:	48 89 e5             	mov    %rsp,%rbp
  4041ab:	48 83 ec 20          	sub    $0x20,%rsp
  4041af:	48 89 4d 10          	mov    %rcx,0x10(%rbp)
  4041b3:	48 8b 4d 10          	mov    0x10(%rbp),%rcx
  4041b7:	e8 d5 ff ff ff       	callq  404191 <bli_obj_struc>
  4041bc:	85 c0                	test   %eax,%eax
  4041be:	0f 94 c0             	sete   %al
  4041c1:	48 83 c4 20          	add    $0x20,%rsp
  4041c5:	5d                   	pop    %rbp
  4041c6:	c3                   	retq   

00000000004041c7 <bli_obj_is_hermitian>:
  4041c7:	55                   	push   %rbp
  4041c8:	48 89 e5             	mov    %rsp,%rbp
  4041cb:	48 83 ec 20          	sub    $0x20,%rsp
  4041cf:	48 89 4d 10          	mov    %rcx,0x10(%rbp)
  4041d3:	48 8b 4d 10          	mov    0x10(%rbp),%rcx
  4041d7:	e8 b5 ff ff ff       	callq  404191 <bli_obj_struc>
  4041dc:	3d 00 00 00 08       	cmp    $0x8000000,%eax
  4041e1:	0f 94 c0             	sete   %al
  4041e4:	48 83 c4 20          	add    $0x20,%rsp
  4041e8:	5d                   	pop    %rbp
  4041e9:	c3                   	retq   

00000000004041ea <bli_obj_is_symmetric>:
  4041ea:	55                   	push   %rbp
  4041eb:	48 89 e5             	mov    %rsp,%rbp
  4041ee:	48 83 ec 20          	sub    $0x20,%rsp
  4041f2:	48 89 4d 10          	mov    %rcx,0x10(%rbp)
  4041f6:	48 8b 4d 10          	mov    0x10(%rbp),%rcx
  4041fa:	e8 92 ff ff ff       	callq  404191 <bli_obj_struc>
  4041ff:	3d 00 00 00 10       	cmp    $0x10000000,%eax
  404204:	0f 94 c0             	sete   %al
  404207:	48 83 c4 20          	add    $0x20,%rsp
  40420b:	5d                   	pop    %rbp
  40420c:	c3                   	retq   

000000000040420d <bli_obj_is_triangular>:
  40420d:	55                   	push   %rbp
  40420e:	48 89 e5             	mov    %rsp,%rbp
  404211:	48 83 ec 20          	sub    $0x20,%rsp
  404215:	48 89 4d 10          	mov    %rcx,0x10(%rbp)
  404219:	48 8b 4d 10          	mov    0x10(%rbp),%rcx
  40421d:	e8 6f ff ff ff       	callq  404191 <bli_obj_struc>
  404222:	3d 00 00 00 18       	cmp    $0x18000000,%eax
  404227:	0f 94 c0             	sete   %al
  40422a:	48 83 c4 20          	add    $0x20,%rsp
  40422e:	5d                   	pop    %rbp
  40422f:	c3                   	retq   

0000000000404230 <bli_obj_apply_trans>:
  404230:	55                   	push   %rbp
  404231:	48 89 e5             	mov    %rsp,%rbp
  404234:	89 4d 10             	mov    %ecx,0x10(%rbp)
  404237:	48 89 55 18          	mov    %rdx,0x18(%rbp)
  40423b:	48 8b 45 18          	mov    0x18(%rbp),%rax
  40423f:	8b 40 30             	mov    0x30(%rax),%eax
  404242:	33 45 10             	xor    0x10(%rbp),%eax
  404245:	48 8b 55 18          	mov    0x18(%rbp),%rdx
  404249:	89 42 30             	mov    %eax,0x30(%rdx)
  40424c:	90                   	nop
  40424d:	5d                   	pop    %rbp
  40424e:	c3                   	retq   

000000000040424f <bli_obj_apply_conj>:
  40424f:	55                   	push   %rbp
  404250:	48 89 e5             	mov    %rsp,%rbp
  404253:	89 4d 10             	mov    %ecx,0x10(%rbp)
  404256:	48 89 55 18          	mov    %rdx,0x18(%rbp)
  40425a:	48 8b 45 18          	mov    0x18(%rbp),%rax
  40425e:	8b 40 30             	mov    0x30(%rax),%eax
  404261:	33 45 10             	xor    0x10(%rbp),%eax
  404264:	48 8b 55 18          	mov    0x18(%rbp),%rdx
  404268:	89 42 30             	mov    %eax,0x30(%rdx)
  40426b:	90                   	nop
  40426c:	5d                   	pop    %rbp
  40426d:	c3                   	retq   

000000000040426e <bli_obj_set_conjtrans>:
  40426e:	55                   	push   %rbp
  40426f:	48 89 e5             	mov    %rsp,%rbp
  404272:	89 4d 10             	mov    %ecx,0x10(%rbp)
  404275:	48 89 55 18          	mov    %rdx,0x18(%rbp)
  404279:	48 8b 45 18          	mov    0x18(%rbp),%rax
  40427d:	8b 40 30             	mov    0x30(%rax),%eax
  404280:	83 e0 e7             	and    $0xffffffe7,%eax
  404283:	0b 45 10             	or     0x10(%rbp),%eax
  404286:	48 8b 55 18          	mov    0x18(%rbp),%rdx
  40428a:	89 42 30             	mov    %eax,0x30(%rdx)
  40428d:	90                   	nop
  40428e:	5d                   	pop    %rbp
  40428f:	c3                   	retq   

0000000000404290 <bli_obj_set_onlytrans>:
  404290:	55                   	push   %rbp
  404291:	48 89 e5             	mov    %rsp,%rbp
  404294:	89 4d 10             	mov    %ecx,0x10(%rbp)
  404297:	48 89 55 18          	mov    %rdx,0x18(%rbp)
  40429b:	48 8b 45 18          	mov    0x18(%rbp),%rax
  40429f:	8b 40 30             	mov    0x30(%rax),%eax
  4042a2:	83 e0 f7             	and    $0xfffffff7,%eax
  4042a5:	0b 45 10             	or     0x10(%rbp),%eax
  4042a8:	48 8b 55 18          	mov    0x18(%rbp),%rdx
  4042ac:	89 42 30             	mov    %eax,0x30(%rdx)
  4042af:	90                   	nop
  4042b0:	5d                   	pop    %rbp
  4042b1:	c3                   	retq   

00000000004042b2 <bli_obj_set_conj>:
  4042b2:	55                   	push   %rbp
  4042b3:	48 89 e5             	mov    %rsp,%rbp
  4042b6:	89 4d 10             	mov    %ecx,0x10(%rbp)
  4042b9:	48 89 55 18          	mov    %rdx,0x18(%rbp)
  4042bd:	48 8b 45 18          	mov    0x18(%rbp),%rax
  4042c1:	8b 40 30             	mov    0x30(%rax),%eax
  4042c4:	83 e0 ef             	and    $0xffffffef,%eax
  4042c7:	0b 45 10             	or     0x10(%rbp),%eax
  4042ca:	48 8b 55 18          	mov    0x18(%rbp),%rdx
  4042ce:	89 42 30             	mov    %eax,0x30(%rdx)
  4042d1:	90                   	nop
  4042d2:	5d                   	pop    %rbp
  4042d3:	c3                   	retq   

00000000004042d4 <bli_obj_set_uplo>:
  4042d4:	55                   	push   %rbp
  4042d5:	48 89 e5             	mov    %rsp,%rbp
  4042d8:	89 4d 10             	mov    %ecx,0x10(%rbp)
  4042db:	48 89 55 18          	mov    %rdx,0x18(%rbp)
  4042df:	48 8b 45 18          	mov    0x18(%rbp),%rax
  4042e3:	8b 40 30             	mov    0x30(%rax),%eax
  4042e6:	24 1f                	and    $0x1f,%al
  4042e8:	0b 45 10             	or     0x10(%rbp),%eax
  4042eb:	48 8b 55 18          	mov    0x18(%rbp),%rdx
  4042ef:	89 42 30             	mov    %eax,0x30(%rdx)
  4042f2:	90                   	nop
  4042f3:	5d                   	pop    %rbp
  4042f4:	c3                   	retq   

00000000004042f5 <bli_obj_set_diag>:
  4042f5:	55                   	push   %rbp
  4042f6:	48 89 e5             	mov    %rsp,%rbp
  4042f9:	89 4d 10             	mov    %ecx,0x10(%rbp)
  4042fc:	48 89 55 18          	mov    %rdx,0x18(%rbp)
  404300:	48 8b 45 18          	mov    0x18(%rbp),%rax
  404304:	8b 40 30             	mov    0x30(%rax),%eax
  404307:	80 e4 fe             	and    $0xfe,%ah
  40430a:	0b 45 10             	or     0x10(%rbp),%eax
  40430d:	48 8b 55 18          	mov    0x18(%rbp),%rdx
  404311:	89 42 30             	mov    %eax,0x30(%rdx)
  404314:	90                   	nop
  404315:	5d                   	pop    %rbp
  404316:	c3                   	retq   

0000000000404317 <bli_obj_set_invert_diag>:
  404317:	55                   	push   %rbp
  404318:	48 89 e5             	mov    %rsp,%rbp
  40431b:	89 4d 10             	mov    %ecx,0x10(%rbp)
  40431e:	48 89 55 18          	mov    %rdx,0x18(%rbp)
  404322:	48 8b 45 18          	mov    0x18(%rbp),%rax
  404326:	8b 40 30             	mov    0x30(%rax),%eax
  404329:	80 e4 fd             	and    $0xfd,%ah
  40432c:	0b 45 10             	or     0x10(%rbp),%eax
  40432f:	48 8b 55 18          	mov    0x18(%rbp),%rdx
  404333:	89 42 30             	mov    %eax,0x30(%rdx)
  404336:	90                   	nop
  404337:	5d                   	pop    %rbp
  404338:	c3                   	retq   

0000000000404339 <bli_obj_set_dt>:
  404339:	55                   	push   %rbp
  40433a:	48 89 e5             	mov    %rsp,%rbp
  40433d:	89 4d 10             	mov    %ecx,0x10(%rbp)
  404340:	48 89 55 18          	mov    %rdx,0x18(%rbp)
  404344:	48 8b 45 18          	mov    0x18(%rbp),%rax
  404348:	8b 40 30             	mov    0x30(%rax),%eax
  40434b:	83 e0 f8             	and    $0xfffffff8,%eax
  40434e:	0b 45 10             	or     0x10(%rbp),%eax
  404351:	48 8b 55 18          	mov    0x18(%rbp),%rdx
  404355:	89 42 30             	mov    %eax,0x30(%rdx)
  404358:	90                   	nop
  404359:	5d                   	pop    %rbp
  40435a:	c3                   	retq   

000000000040435b <bli_obj_set_target_dt>:
  40435b:	55                   	push   %rbp
  40435c:	48 89 e5             	mov    %rsp,%rbp
  40435f:	89 4d 10             	mov    %ecx,0x10(%rbp)
  404362:	48 89 55 18          	mov    %rdx,0x18(%rbp)
  404366:	48 8b 45 18          	mov    0x18(%rbp),%rax
  40436a:	8b 40 30             	mov    0x30(%rax),%eax
  40436d:	80 e4 e3             	and    $0xe3,%ah
  404370:	89 c2                	mov    %eax,%edx
  404372:	8b 45 10             	mov    0x10(%rbp),%eax
  404375:	c1 e0 0a             	shl    $0xa,%eax
  404378:	09 c2                	or     %eax,%edx
  40437a:	48 8b 45 18          	mov    0x18(%rbp),%rax
  40437e:	89 50 30             	mov    %edx,0x30(%rax)
  404381:	90                   	nop
  404382:	5d                   	pop    %rbp
  404383:	c3                   	retq   

0000000000404384 <bli_obj_set_target_domain>:
  404384:	55                   	push   %rbp
  404385:	48 89 e5             	mov    %rsp,%rbp
  404388:	89 4d 10             	mov    %ecx,0x10(%rbp)
  40438b:	48 89 55 18          	mov    %rdx,0x18(%rbp)
  40438f:	48 8b 45 18          	mov    0x18(%rbp),%rax
  404393:	8b 40 30             	mov    0x30(%rax),%eax
  404396:	80 e4 fb             	and    $0xfb,%ah
  404399:	89 c2                	mov    %eax,%edx
  40439b:	8b 45 10             	mov    0x10(%rbp),%eax
  40439e:	c1 e0 0a             	shl    $0xa,%eax
  4043a1:	09 c2                	or     %eax,%edx
  4043a3:	48 8b 45 18          	mov    0x18(%rbp),%rax
  4043a7:	89 50 30             	mov    %edx,0x30(%rax)
  4043aa:	90                   	nop
  4043ab:	5d                   	pop    %rbp
  4043ac:	c3                   	retq   

00000000004043ad <bli_obj_set_target_prec>:
  4043ad:	55                   	push   %rbp
  4043ae:	48 89 e5             	mov    %rsp,%rbp
  4043b1:	89 4d 10             	mov    %ecx,0x10(%rbp)
  4043b4:	48 89 55 18          	mov    %rdx,0x18(%rbp)
  4043b8:	48 8b 45 18          	mov    0x18(%rbp),%rax
  4043bc:	8b 40 30             	mov    0x30(%rax),%eax
  4043bf:	80 e4 f7             	and    $0xf7,%ah
  4043c2:	89 c2                	mov    %eax,%edx
  4043c4:	8b 45 10             	mov    0x10(%rbp),%eax
  4043c7:	c1 e0 0a             	shl    $0xa,%eax
  4043ca:	09 c2                	or     %eax,%edx
  4043cc:	48 8b 45 18          	mov    0x18(%rbp),%rax
  4043d0:	89 50 30             	mov    %edx,0x30(%rax)
  4043d3:	90                   	nop
  4043d4:	5d                   	pop    %rbp
  4043d5:	c3                   	retq   

00000000004043d6 <bli_obj_set_exec_dt>:
  4043d6:	55                   	push   %rbp
  4043d7:	48 89 e5             	mov    %rsp,%rbp
  4043da:	89 4d 10             	mov    %ecx,0x10(%rbp)
  4043dd:	48 89 55 18          	mov    %rdx,0x18(%rbp)
  4043e1:	48 8b 45 18          	mov    0x18(%rbp),%rax
  4043e5:	8b 40 30             	mov    0x30(%rax),%eax
  4043e8:	80 e4 1f             	and    $0x1f,%ah
  4043eb:	89 c2                	mov    %eax,%edx
  4043ed:	8b 45 10             	mov    0x10(%rbp),%eax
  4043f0:	c1 e0 0d             	shl    $0xd,%eax
  4043f3:	09 c2                	or     %eax,%edx
  4043f5:	48 8b 45 18          	mov    0x18(%rbp),%rax
  4043f9:	89 50 30             	mov    %edx,0x30(%rax)
  4043fc:	90                   	nop
  4043fd:	5d                   	pop    %rbp
  4043fe:	c3                   	retq   

00000000004043ff <bli_obj_set_exec_domain>:
  4043ff:	55                   	push   %rbp
  404400:	48 89 e5             	mov    %rsp,%rbp
  404403:	89 4d 10             	mov    %ecx,0x10(%rbp)
  404406:	48 89 55 18          	mov    %rdx,0x18(%rbp)
  40440a:	48 8b 45 18          	mov    0x18(%rbp),%rax
  40440e:	8b 40 30             	mov    0x30(%rax),%eax
  404411:	80 e4 df             	and    $0xdf,%ah
  404414:	89 c2                	mov    %eax,%edx
  404416:	8b 45 10             	mov    0x10(%rbp),%eax
  404419:	c1 e0 0d             	shl    $0xd,%eax
  40441c:	09 c2                	or     %eax,%edx
  40441e:	48 8b 45 18          	mov    0x18(%rbp),%rax
  404422:	89 50 30             	mov    %edx,0x30(%rax)
  404425:	90                   	nop
  404426:	5d                   	pop    %rbp
  404427:	c3                   	retq   

0000000000404428 <bli_obj_set_exec_prec>:
  404428:	55                   	push   %rbp
  404429:	48 89 e5             	mov    %rsp,%rbp
  40442c:	89 4d 10             	mov    %ecx,0x10(%rbp)
  40442f:	48 89 55 18          	mov    %rdx,0x18(%rbp)
  404433:	48 8b 45 18          	mov    0x18(%rbp),%rax
  404437:	8b 40 30             	mov    0x30(%rax),%eax
  40443a:	80 e4 bf             	and    $0xbf,%ah
  40443d:	89 c2                	mov    %eax,%edx
  40443f:	8b 45 10             	mov    0x10(%rbp),%eax
  404442:	c1 e0 0d             	shl    $0xd,%eax
  404445:	09 c2                	or     %eax,%edx
  404447:	48 8b 45 18          	mov    0x18(%rbp),%rax
  40444b:	89 50 30             	mov    %edx,0x30(%rax)
  40444e:	90                   	nop
  40444f:	5d                   	pop    %rbp
  404450:	c3                   	retq   

0000000000404451 <bli_obj_set_comp_dt>:
  404451:	55                   	push   %rbp
  404452:	48 89 e5             	mov    %rsp,%rbp
  404455:	89 4d 10             	mov    %ecx,0x10(%rbp)
  404458:	48 89 55 18          	mov    %rdx,0x18(%rbp)
  40445c:	48 8b 45 18          	mov    0x18(%rbp),%rax
  404460:	8b 40 30             	mov    0x30(%rax),%eax
  404463:	25 ff ff ff 1f       	and    $0x1fffffff,%eax
  404468:	89 c2                	mov    %eax,%edx
  40446a:	8b 45 10             	mov    0x10(%rbp),%eax
  40446d:	c1 e0 1d             	shl    $0x1d,%eax
  404470:	09 c2                	or     %eax,%edx
  404472:	48 8b 45 18          	mov    0x18(%rbp),%rax
  404476:	89 50 30             	mov    %edx,0x30(%rax)
  404479:	90                   	nop
  40447a:	5d                   	pop    %rbp
  40447b:	c3                   	retq   

000000000040447c <bli_obj_set_comp_domain>:
  40447c:	55                   	push   %rbp
  40447d:	48 89 e5             	mov    %rsp,%rbp
  404480:	89 4d 10             	mov    %ecx,0x10(%rbp)
  404483:	48 89 55 18          	mov    %rdx,0x18(%rbp)
  404487:	48 8b 45 18          	mov    0x18(%rbp),%rax
  40448b:	8b 40 30             	mov    0x30(%rax),%eax
  40448e:	25 ff ff ff df       	and    $0xdfffffff,%eax
  404493:	89 c2                	mov    %eax,%edx
  404495:	8b 45 10             	mov    0x10(%rbp),%eax
  404498:	c1 e0 1d             	shl    $0x1d,%eax
  40449b:	09 c2                	or     %eax,%edx
  40449d:	48 8b 45 18          	mov    0x18(%rbp),%rax
  4044a1:	89 50 30             	mov    %edx,0x30(%rax)
  4044a4:	90                   	nop
  4044a5:	5d                   	pop    %rbp
  4044a6:	c3                   	retq   

00000000004044a7 <bli_obj_set_comp_prec>:
  4044a7:	55                   	push   %rbp
  4044a8:	48 89 e5             	mov    %rsp,%rbp
  4044ab:	89 4d 10             	mov    %ecx,0x10(%rbp)
  4044ae:	48 89 55 18          	mov    %rdx,0x18(%rbp)
  4044b2:	48 8b 45 18          	mov    0x18(%rbp),%rax
  4044b6:	8b 40 30             	mov    0x30(%rax),%eax
  4044b9:	25 ff ff ff bf       	and    $0xbfffffff,%eax
  4044be:	89 c2                	mov    %eax,%edx
  4044c0:	8b 45 10             	mov    0x10(%rbp),%eax
  4044c3:	c1 e0 1d             	shl    $0x1d,%eax
  4044c6:	09 c2                	or     %eax,%edx
  4044c8:	48 8b 45 18          	mov    0x18(%rbp),%rax
  4044cc:	89 50 30             	mov    %edx,0x30(%rax)
  4044cf:	90                   	nop
  4044d0:	5d                   	pop    %rbp
  4044d1:	c3                   	retq   

00000000004044d2 <bli_obj_set_scalar_dt>:
  4044d2:	55                   	push   %rbp
  4044d3:	48 89 e5             	mov    %rsp,%rbp
  4044d6:	89 4d 10             	mov    %ecx,0x10(%rbp)
  4044d9:	48 89 55 18          	mov    %rdx,0x18(%rbp)
  4044dd:	48 8b 45 18          	mov    0x18(%rbp),%rax
  4044e1:	8b 40 34             	mov    0x34(%rax),%eax
  4044e4:	83 e0 f8             	and    $0xfffffff8,%eax
  4044e7:	0b 45 10             	or     0x10(%rbp),%eax
  4044ea:	48 8b 55 18          	mov    0x18(%rbp),%rdx
  4044ee:	89 42 34             	mov    %eax,0x34(%rdx)
  4044f1:	90                   	nop
  4044f2:	5d                   	pop    %rbp
  4044f3:	c3                   	retq   

00000000004044f4 <bli_obj_set_scalar_domain>:
  4044f4:	55                   	push   %rbp
  4044f5:	48 89 e5             	mov    %rsp,%rbp
  4044f8:	89 4d 10             	mov    %ecx,0x10(%rbp)
  4044fb:	48 89 55 18          	mov    %rdx,0x18(%rbp)
  4044ff:	48 8b 45 18          	mov    0x18(%rbp),%rax
  404503:	8b 40 34             	mov    0x34(%rax),%eax
  404506:	83 e0 fe             	and    $0xfffffffe,%eax
  404509:	0b 45 10             	or     0x10(%rbp),%eax
  40450c:	48 8b 55 18          	mov    0x18(%rbp),%rdx
  404510:	89 42 34             	mov    %eax,0x34(%rdx)
  404513:	90                   	nop
  404514:	5d                   	pop    %rbp
  404515:	c3                   	retq   

0000000000404516 <bli_obj_set_scalar_prec>:
  404516:	55                   	push   %rbp
  404517:	48 89 e5             	mov    %rsp,%rbp
  40451a:	89 4d 10             	mov    %ecx,0x10(%rbp)
  40451d:	48 89 55 18          	mov    %rdx,0x18(%rbp)
  404521:	48 8b 45 18          	mov    0x18(%rbp),%rax
  404525:	8b 40 34             	mov    0x34(%rax),%eax
  404528:	83 e0 fd             	and    $0xfffffffd,%eax
  40452b:	0b 45 10             	or     0x10(%rbp),%eax
  40452e:	48 8b 55 18          	mov    0x18(%rbp),%rdx
  404532:	89 42 34             	mov    %eax,0x34(%rdx)
  404535:	90                   	nop
  404536:	5d                   	pop    %rbp
  404537:	c3                   	retq   

0000000000404538 <bli_obj_set_pack_schema>:
  404538:	55                   	push   %rbp
  404539:	48 89 e5             	mov    %rsp,%rbp
  40453c:	89 4d 10             	mov    %ecx,0x10(%rbp)
  40453f:	48 89 55 18          	mov    %rdx,0x18(%rbp)
  404543:	48 8b 45 18          	mov    0x18(%rbp),%rax
  404547:	8b 40 30             	mov    0x30(%rax),%eax
  40454a:	25 ff ff 80 ff       	and    $0xff80ffff,%eax
  40454f:	0b 45 10             	or     0x10(%rbp),%eax
  404552:	48 8b 55 18          	mov    0x18(%rbp),%rdx
  404556:	89 42 30             	mov    %eax,0x30(%rdx)
  404559:	90                   	nop
  40455a:	5d                   	pop    %rbp
  40455b:	c3                   	retq   

000000000040455c <bli_obj_set_pack_order_if_upper>:
  40455c:	55                   	push   %rbp
  40455d:	48 89 e5             	mov    %rsp,%rbp
  404560:	89 4d 10             	mov    %ecx,0x10(%rbp)
  404563:	48 89 55 18          	mov    %rdx,0x18(%rbp)
  404567:	48 8b 45 18          	mov    0x18(%rbp),%rax
  40456b:	8b 40 30             	mov    0x30(%rax),%eax
  40456e:	25 ff ff 7f ff       	and    $0xff7fffff,%eax
  404573:	0b 45 10             	or     0x10(%rbp),%eax
  404576:	48 8b 55 18          	mov    0x18(%rbp),%rdx
  40457a:	89 42 30             	mov    %eax,0x30(%rdx)
  40457d:	90                   	nop
  40457e:	5d                   	pop    %rbp
  40457f:	c3                   	retq   

0000000000404580 <bli_obj_set_pack_order_if_lower>:
  404580:	55                   	push   %rbp
  404581:	48 89 e5             	mov    %rsp,%rbp
  404584:	89 4d 10             	mov    %ecx,0x10(%rbp)
  404587:	48 89 55 18          	mov    %rdx,0x18(%rbp)
  40458b:	48 8b 45 18          	mov    0x18(%rbp),%rax
  40458f:	8b 40 30             	mov    0x30(%rax),%eax
  404592:	25 ff ff ff fe       	and    $0xfeffffff,%eax
  404597:	0b 45 10             	or     0x10(%rbp),%eax
  40459a:	48 8b 55 18          	mov    0x18(%rbp),%rdx
  40459e:	89 42 30             	mov    %eax,0x30(%rdx)
  4045a1:	90                   	nop
  4045a2:	5d                   	pop    %rbp
  4045a3:	c3                   	retq   

00000000004045a4 <bli_obj_set_pack_buffer_type>:
  4045a4:	55                   	push   %rbp
  4045a5:	48 89 e5             	mov    %rsp,%rbp
  4045a8:	89 4d 10             	mov    %ecx,0x10(%rbp)
  4045ab:	48 89 55 18          	mov    %rdx,0x18(%rbp)
  4045af:	48 8b 45 18          	mov    0x18(%rbp),%rax
  4045b3:	8b 40 30             	mov    0x30(%rax),%eax
  4045b6:	25 ff ff ff f9       	and    $0xf9ffffff,%eax
  4045bb:	0b 45 10             	or     0x10(%rbp),%eax
  4045be:	48 8b 55 18          	mov    0x18(%rbp),%rdx
  4045c2:	89 42 30             	mov    %eax,0x30(%rdx)
  4045c5:	90                   	nop
  4045c6:	5d                   	pop    %rbp
  4045c7:	c3                   	retq   

00000000004045c8 <bli_obj_set_struc>:
  4045c8:	55                   	push   %rbp
  4045c9:	48 89 e5             	mov    %rsp,%rbp
  4045cc:	89 4d 10             	mov    %ecx,0x10(%rbp)
  4045cf:	48 89 55 18          	mov    %rdx,0x18(%rbp)
  4045d3:	48 8b 45 18          	mov    0x18(%rbp),%rax
  4045d7:	8b 40 30             	mov    0x30(%rax),%eax
  4045da:	25 ff ff ff e7       	and    $0xe7ffffff,%eax
  4045df:	0b 45 10             	or     0x10(%rbp),%eax
  4045e2:	48 8b 55 18          	mov    0x18(%rbp),%rdx
  4045e6:	89 42 30             	mov    %eax,0x30(%rdx)
  4045e9:	90                   	nop
  4045ea:	5d                   	pop    %rbp
  4045eb:	c3                   	retq   

00000000004045ec <bli_obj_toggle_trans>:
  4045ec:	55                   	push   %rbp
  4045ed:	48 89 e5             	mov    %rsp,%rbp
  4045f0:	48 83 ec 20          	sub    $0x20,%rsp
  4045f4:	48 89 4d 10          	mov    %rcx,0x10(%rbp)
  4045f8:	48 8b 55 10          	mov    0x10(%rbp),%rdx
  4045fc:	b9 08 00 00 00       	mov    $0x8,%ecx
  404601:	e8 2a fc ff ff       	callq  404230 <bli_obj_apply_trans>
  404606:	90                   	nop
  404607:	48 83 c4 20          	add    $0x20,%rsp
  40460b:	5d                   	pop    %rbp
  40460c:	c3                   	retq   

000000000040460d <bli_obj_toggle_conj>:
  40460d:	55                   	push   %rbp
  40460e:	48 89 e5             	mov    %rsp,%rbp
  404611:	48 83 ec 20          	sub    $0x20,%rsp
  404615:	48 89 4d 10          	mov    %rcx,0x10(%rbp)
  404619:	48 8b 55 10          	mov    0x10(%rbp),%rdx
  40461d:	b9 10 00 00 00       	mov    $0x10,%ecx
  404622:	e8 28 fc ff ff       	callq  40424f <bli_obj_apply_conj>
  404627:	90                   	nop
  404628:	48 83 c4 20          	add    $0x20,%rsp
  40462c:	5d                   	pop    %rbp
  40462d:	c3                   	retq   

000000000040462e <bli_obj_toggle_uplo>:
  40462e:	55                   	push   %rbp
  40462f:	48 89 e5             	mov    %rsp,%rbp
  404632:	48 89 4d 10          	mov    %rcx,0x10(%rbp)
  404636:	48 8b 45 10          	mov    0x10(%rbp),%rax
  40463a:	8b 40 30             	mov    0x30(%rax),%eax
  40463d:	34 a0                	xor    $0xa0,%al
  40463f:	89 c2                	mov    %eax,%edx
  404641:	48 8b 45 10          	mov    0x10(%rbp),%rax
  404645:	89 50 30             	mov    %edx,0x30(%rax)
  404648:	90                   	nop
  404649:	5d                   	pop    %rbp
  40464a:	c3                   	retq   

000000000040464b <bli_obj_root>:
  40464b:	55                   	push   %rbp
  40464c:	48 89 e5             	mov    %rsp,%rbp
  40464f:	48 89 4d 10          	mov    %rcx,0x10(%rbp)
  404653:	48 8b 45 10          	mov    0x10(%rbp),%rax
  404657:	48 8b 00             	mov    (%rax),%rax
  40465a:	5d                   	pop    %rbp
  40465b:	c3                   	retq   

000000000040465c <bli_obj_root_is_general>:
  40465c:	55                   	push   %rbp
  40465d:	48 89 e5             	mov    %rsp,%rbp
  404660:	48 83 ec 20          	sub    $0x20,%rsp
  404664:	48 89 4d 10          	mov    %rcx,0x10(%rbp)
  404668:	48 8b 4d 10          	mov    0x10(%rbp),%rcx
  40466c:	e8 da ff ff ff       	callq  40464b <bli_obj_root>
  404671:	48 89 c1             	mov    %rax,%rcx
  404674:	e8 2e fb ff ff       	callq  4041a7 <bli_obj_is_general>
  404679:	48 83 c4 20          	add    $0x20,%rsp
  40467d:	5d                   	pop    %rbp
  40467e:	c3                   	retq   

000000000040467f <bli_obj_root_is_hermitian>:
  40467f:	55                   	push   %rbp
  404680:	48 89 e5             	mov    %rsp,%rbp
  404683:	48 83 ec 20          	sub    $0x20,%rsp
  404687:	48 89 4d 10          	mov    %rcx,0x10(%rbp)
  40468b:	48 8b 4d 10          	mov    0x10(%rbp),%rcx
  40468f:	e8 b7 ff ff ff       	callq  40464b <bli_obj_root>
  404694:	48 89 c1             	mov    %rax,%rcx
  404697:	e8 2b fb ff ff       	callq  4041c7 <bli_obj_is_hermitian>
  40469c:	48 83 c4 20          	add    $0x20,%rsp
  4046a0:	5d                   	pop    %rbp
  4046a1:	c3                   	retq   

00000000004046a2 <bli_obj_root_is_symmetric>:
  4046a2:	55                   	push   %rbp
  4046a3:	48 89 e5             	mov    %rsp,%rbp
  4046a6:	48 83 ec 20          	sub    $0x20,%rsp
  4046aa:	48 89 4d 10          	mov    %rcx,0x10(%rbp)
  4046ae:	48 8b 4d 10          	mov    0x10(%rbp),%rcx
  4046b2:	e8 94 ff ff ff       	callq  40464b <bli_obj_root>
  4046b7:	48 89 c1             	mov    %rax,%rcx
  4046ba:	e8 2b fb ff ff       	callq  4041ea <bli_obj_is_symmetric>
  4046bf:	48 83 c4 20          	add    $0x20,%rsp
  4046c3:	5d                   	pop    %rbp
  4046c4:	c3                   	retq   

00000000004046c5 <bli_obj_root_is_triangular>:
  4046c5:	55                   	push   %rbp
  4046c6:	48 89 e5             	mov    %rsp,%rbp
  4046c9:	48 83 ec 20          	sub    $0x20,%rsp
  4046cd:	48 89 4d 10          	mov    %rcx,0x10(%rbp)
  4046d1:	48 8b 4d 10          	mov    0x10(%rbp),%rcx
  4046d5:	e8 71 ff ff ff       	callq  40464b <bli_obj_root>
  4046da:	48 89 c1             	mov    %rax,%rcx
  4046dd:	e8 2b fb ff ff       	callq  40420d <bli_obj_is_triangular>
  4046e2:	48 83 c4 20          	add    $0x20,%rsp
  4046e6:	5d                   	pop    %rbp
  4046e7:	c3                   	retq   

00000000004046e8 <bli_obj_root_is_herm_or_symm>:
  4046e8:	55                   	push   %rbp
  4046e9:	48 89 e5             	mov    %rsp,%rbp
  4046ec:	48 83 ec 20          	sub    $0x20,%rsp
  4046f0:	48 89 4d 10          	mov    %rcx,0x10(%rbp)
  4046f4:	48 8b 4d 10          	mov    0x10(%rbp),%rcx
  4046f8:	e8 4e ff ff ff       	callq  40464b <bli_obj_root>
  4046fd:	48 89 c1             	mov    %rax,%rcx
  404700:	e8 c2 fa ff ff       	callq  4041c7 <bli_obj_is_hermitian>
  404705:	84 c0                	test   %al,%al
  404707:	75 15                	jne    40471e <bli_obj_root_is_herm_or_symm+0x36>
  404709:	48 8b 4d 10          	mov    0x10(%rbp),%rcx
  40470d:	e8 39 ff ff ff       	callq  40464b <bli_obj_root>
  404712:	48 89 c1             	mov    %rax,%rcx
  404715:	e8 d0 fa ff ff       	callq  4041ea <bli_obj_is_symmetric>
  40471a:	84 c0                	test   %al,%al
  40471c:	74 07                	je     404725 <bli_obj_root_is_herm_or_symm+0x3d>
  40471e:	b8 01 00 00 00       	mov    $0x1,%eax
  404723:	eb 05                	jmp    40472a <bli_obj_root_is_herm_or_symm+0x42>
  404725:	b8 00 00 00 00       	mov    $0x0,%eax
  40472a:	83 e0 01             	and    $0x1,%eax
  40472d:	48 83 c4 20          	add    $0x20,%rsp
  404731:	5d                   	pop    %rbp
  404732:	c3                   	retq   

0000000000404733 <bli_obj_root_is_upper>:
  404733:	55                   	push   %rbp
  404734:	48 89 e5             	mov    %rsp,%rbp
  404737:	48 83 ec 20          	sub    $0x20,%rsp
  40473b:	48 89 4d 10          	mov    %rcx,0x10(%rbp)
  40473f:	48 8b 4d 10          	mov    0x10(%rbp),%rcx
  404743:	e8 03 ff ff ff       	callq  40464b <bli_obj_root>
  404748:	48 89 c1             	mov    %rax,%rcx
  40474b:	e8 3d f8 ff ff       	callq  403f8d <bli_obj_is_upper>
  404750:	48 83 c4 20          	add    $0x20,%rsp
  404754:	5d                   	pop    %rbp
  404755:	c3                   	retq   

0000000000404756 <bli_obj_root_is_lower>:
  404756:	55                   	push   %rbp
  404757:	48 89 e5             	mov    %rsp,%rbp
  40475a:	48 83 ec 20          	sub    $0x20,%rsp
  40475e:	48 89 4d 10          	mov    %rcx,0x10(%rbp)
  404762:	48 8b 4d 10          	mov    0x10(%rbp),%rcx
  404766:	e8 e0 fe ff ff       	callq  40464b <bli_obj_root>
  40476b:	48 89 c1             	mov    %rax,%rcx
  40476e:	e8 3b f8 ff ff       	callq  403fae <bli_obj_is_lower>
  404773:	48 83 c4 20          	add    $0x20,%rsp
  404777:	5d                   	pop    %rbp
  404778:	c3                   	retq   

0000000000404779 <bli_obj_set_as_root>:
  404779:	55                   	push   %rbp
  40477a:	48 89 e5             	mov    %rsp,%rbp
  40477d:	48 89 4d 10          	mov    %rcx,0x10(%rbp)
  404781:	48 8b 45 10          	mov    0x10(%rbp),%rax
  404785:	48 8b 55 10          	mov    0x10(%rbp),%rdx
  404789:	48 89 10             	mov    %rdx,(%rax)
  40478c:	90                   	nop
  40478d:	5d                   	pop    %rbp
  40478e:	c3                   	retq   

000000000040478f <bli_obj_diag_offset>:
  40478f:	55                   	push   %rbp
  404790:	48 89 e5             	mov    %rsp,%rbp
  404793:	48 89 4d 10          	mov    %rcx,0x10(%rbp)
  404797:	48 8b 45 10          	mov    0x10(%rbp),%rax
  40479b:	48 8b 40 28          	mov    0x28(%rax),%rax
  40479f:	5d                   	pop    %rbp
  4047a0:	c3                   	retq   

00000000004047a1 <bli_obj_diag_offset_after_trans>:
  4047a1:	55                   	push   %rbp
  4047a2:	48 89 e5             	mov    %rsp,%rbp
  4047a5:	48 83 ec 20          	sub    $0x20,%rsp
  4047a9:	48 89 4d 10          	mov    %rcx,0x10(%rbp)
  4047ad:	48 8b 4d 10          	mov    0x10(%rbp),%rcx
  4047b1:	e8 2b f7 ff ff       	callq  403ee1 <bli_obj_has_trans>
  4047b6:	84 c0                	test   %al,%al
  4047b8:	74 0e                	je     4047c8 <bli_obj_diag_offset_after_trans+0x27>
  4047ba:	48 8b 4d 10          	mov    0x10(%rbp),%rcx
  4047be:	e8 cc ff ff ff       	callq  40478f <bli_obj_diag_offset>
  4047c3:	48 f7 d8             	neg    %rax
  4047c6:	eb 09                	jmp    4047d1 <bli_obj_diag_offset_after_trans+0x30>
  4047c8:	48 8b 4d 10          	mov    0x10(%rbp),%rcx
  4047cc:	e8 be ff ff ff       	callq  40478f <bli_obj_diag_offset>
  4047d1:	48 83 c4 20          	add    $0x20,%rsp
  4047d5:	5d                   	pop    %rbp
  4047d6:	c3                   	retq   

00000000004047d7 <bli_obj_set_diag_offset>:
  4047d7:	55                   	push   %rbp
  4047d8:	48 89 e5             	mov    %rsp,%rbp
  4047db:	48 89 4d 10          	mov    %rcx,0x10(%rbp)
  4047df:	48 89 55 18          	mov    %rdx,0x18(%rbp)
  4047e3:	48 8b 45 18          	mov    0x18(%rbp),%rax
  4047e7:	48 8b 55 10          	mov    0x10(%rbp),%rdx
  4047eb:	48 89 50 28          	mov    %rdx,0x28(%rax)
  4047ef:	90                   	nop
  4047f0:	5d                   	pop    %rbp
  4047f1:	c3                   	retq   

00000000004047f2 <bli_obj_negate_diag_offset>:
  4047f2:	55                   	push   %rbp
  4047f3:	48 89 e5             	mov    %rsp,%rbp
  4047f6:	48 89 4d 10          	mov    %rcx,0x10(%rbp)
  4047fa:	48 8b 45 10          	mov    0x10(%rbp),%rax
  4047fe:	48 8b 40 28          	mov    0x28(%rax),%rax
  404802:	48 f7 d8             	neg    %rax
  404805:	48 89 c2             	mov    %rax,%rdx
  404808:	48 8b 45 10          	mov    0x10(%rbp),%rax
  40480c:	48 89 50 28          	mov    %rdx,0x28(%rax)
  404810:	90                   	nop
  404811:	5d                   	pop    %rbp
  404812:	c3                   	retq   

0000000000404813 <bli_obj_inc_diag_offset>:
  404813:	55                   	push   %rbp
  404814:	48 89 e5             	mov    %rsp,%rbp
  404817:	48 89 4d 10          	mov    %rcx,0x10(%rbp)
  40481b:	48 89 55 18          	mov    %rdx,0x18(%rbp)
  40481f:	48 8b 45 18          	mov    0x18(%rbp),%rax
  404823:	48 8b 50 28          	mov    0x28(%rax),%rdx
  404827:	48 8b 45 10          	mov    0x10(%rbp),%rax
  40482b:	48 01 c2             	add    %rax,%rdx
  40482e:	48 8b 45 18          	mov    0x18(%rbp),%rax
  404832:	48 89 50 28          	mov    %rdx,0x28(%rax)
  404836:	90                   	nop
  404837:	5d                   	pop    %rbp
  404838:	c3                   	retq   

0000000000404839 <bli_obj_length>:
